ASxxxx Linker V03.00 + NoICE + sdld,  page 1.
Hexadecimal  [32-Bits]

Area                       Addr        Size        Decimal Bytes (Attributes)
--------------------       ----        ----        ------- ----- ------------
.  .ABS.               00000000    00000000 =           0. bytes (ABS,CON)

        Value  Global            Value  Global            Value  Global    
        -----  ------            -----  ------            -----  ------    
     00000000  .__.ABS.  |    00000000  _rRAMG    |    00000000  l__BASE  
     00000000  l__BSS    |    00000000  l__CABS   |    00000000  l__CODE_0
     00000000  l__DABS   |    00000000  l__FONT_H |    00000000  l__HEADER
     00000000  l__HEADER |    00000000  l__HEAP   |    00000000  l__HRAM  
     00000000  l__LIT    |    00000000  s__CABS   |    00000000  s__DABS  
     00000000  s__FONT_H |    00000000  s__FONT_H |    00000000  s__HEADER
     00000000  s__HEADER |    00000000  s__HEADER |    00000000  s__HEADER
     00000000  s__HEADER |    00000000  s__HEADER |    00000000  s__HEADER
     00000000  s__HEADER |    00000000  s__HEADER |    00000000  s__HEADER
     00000000  s__HEADER |    00000000  s__HEADER |    00000000  s__HEADER
     00000000  s__HEADER |    00000000  s__HEADER |    00000000  s__HEADER
     00000000  s__HEADER |    00000000  s__HEADER |    00000000  s__HEADER
     00000000  s__HEADER |    00000000  s__HEADER |    00000000  s__HRAM  
     00000000  s__HRAM12 |    00000001  l__GSFINA |    00000001  l__HEADER
     00000001  l__HEADER |    00000001  l__HEADER |    00000001  l__HEADER
     00000001  l__HEADER |    00000001  l__HEADER |    00000001  l__HEADER
     00000002  l__HEADER |    00000002  l__HEADER |    00000002  l__HEADER
     00000003  l__FONT_H |    00000003  l__HEADER |    00000003  l__HEADER
     00000003  l__HRAM12 |    00000005  l__HEADER |    00000005  l__INITIA
     00000005  l__INITIA |    00000006  l__HEADER |    00000007  l__HEADER
     00000008  l__HEADER |    0000000C  l__GSINIT |    00000030  l__HEADER
     0000003F  l__DATA   |    0000004E  l__HEADER |    00000082  l__HEADER
     00000200  s__CODE   |    00000A4F  l__HOME   |    00000D6B  l__CODE  
     00000F6B  s__HOME   |    000019BA  s__BASE   |    000019BA  s__CODE_0
     000019BA  s__INITIA |    000019BA  s__LIT    |    000019BF  s__GSINIT
     000019CB  s__GSFINA |    00002000  _rROMB0   |    00003000  _rROMB1  
     00004000  _rRAMB    |    00008000  __VRAM    |    00008000  __VRAM800
     00008800  __VRAM880 |    00009000  __VRAM900 |    00009800  __SCRN0  
     00009C00  __SCRN1   |    0000A000  __SRAM    |    0000C000  __RAM    
     0000C000  _shadow_O |    0000C0A0  s__DATA   |    0000C0DF  s__BSS   
     0000C0DF  s__INITIA |    0000C0E4  s__HEAP   |    0000D000  __RAMBANK
     0000E000  .STACK    |    0000FE00  __OAMRAM  |    0000FF00  _P1_REG  
     0000FF00  __IO      |    0000FF01  _SB_REG   |    0000FF02  _SC_REG  
     0000FF04  _DIV_REG  |    0000FF05  _TIMA_REG |    0000FF06  _TMA_REG 
     0000FF07  _TAC_REG  |    0000FF0F  _IF_REG   |    0000FF10  _NR10_REG
     0000FF11  _NR11_REG |    0000FF12  _NR12_REG |    0000FF13  _NR13_REG
     0000FF14  _NR14_REG |    0000FF16  _NR21_REG |    0000FF17  _NR22_REG
     0000FF18  _NR23_REG |    0000FF19  _NR24_REG |    0000FF1A  _NR30_REG
     0000FF1B  _NR31_REG |    0000FF1C  _NR32_REG |    0000FF1D  _NR33_REG
     0000FF1E  _NR34_REG |    0000FF20  _NR41_REG |    0000FF21  _NR42_REG
     0000FF22  _NR43_REG |    0000FF23  _NR44_REG |    0000FF24  _NR50_REG
     0000FF25  _NR51_REG |    0000FF26  _NR52_REG |    0000FF30  _AUD3WAVE
     0000FF30  _PCM_SAMP |    0000FF30  __AUD3WAV |    0000FF40  _LCDC_REG
     0000FF41  _STAT_REG |    0000FF42  _SCY_REG  |    0000FF43  _SCX_REG 
     0000FF44  _LY_REG   |    0000FF45  _LYC_REG  |    0000FF46  _DMA_REG 
     0000FF47  _BGP_REG  |    0000FF48  _OBP0_REG |    0000FF49  _OBP1_REG
     0000FF4A  _WY_REG   |    0000FF4B  _WX_REG   |    0000FF4D  _KEY1_REG
     0000FF4F  _VBK_REG  |    0000FF51  _HDMA1_RE |    0000FF52  _HDMA2_RE
     0000FF53  _HDMA3_RE |    0000FF54  _HDMA4_RE |    0000FF55  _HDMA5_RE
     0000FF56  _RP_REG   |    0000FF68  _BCPS_REG |    0000FF69  _BCPD_REG
ASxxxx Linker V03.00 + NoICE + sdld,  page 2.
Hexadecimal  [32-Bits]

Area                       Addr        Size        Decimal Bytes (Attributes)
--------------------       ----        ----        ------- ----- ------------
.  .ABS.               00000000    00000000 =           0. bytes (ABS,CON)

        Value  Global            Value  Global            Value  Global    
        -----  ------            -----  ------            -----  ------    
     0000FF6A  _OCPS_REG |    0000FF6B  _OCPD_REG |    0000FF70  _SVBK_REG
     0000FF76  _PCM12_RE |    0000FF77  _PCM34_RE |    0000FF80  .refresh_
     0000FF80  __HRAM    |    0000FFFF  _IE_REG  
ASxxxx Linker V03.00 + NoICE + sdld,  page 3.
Hexadecimal  [32-Bits]

Area                       Addr        Size        Decimal Bytes (Attributes)
--------------------       ----        ----        ------- ----- ------------
_CODE                  00000200    00000D6B =        3435. bytes (REL,CON)

        Value  Global            Value  Global            Value  Global    
        -----  ------            -----  ------            -----  ------    
     00000200  A$main$70 |    00000200  C$system. |    00000200  G$cpu_wai
     00000200  _cpu_wait |    00000202  A$main$74 |    00000202  C$system.
     00000204  A$main$75 |    00000205  A$main$76 |    00000207  A$main$77
     0000020A  A$main$78 |    0000020B  A$main$79 |    0000020C  A$main$80
     0000020F  A$main$81 |    00000211  A$main$82 |    00000212  A$main$83
     00000213  A$main$84 |    00000214  A$main$85 |    00000215  A$main$86
     00000216  A$main$87 |    00000217  A$main$88 |    00000218  A$main$89
     00000219  A$main$90 |    0000021A  A$main$91 |    0000021B  A$main$92
     0000021C  A$main$93 |    0000021D  A$main$94 |    0000021E  A$main$95
     0000021F  A$main$96 |    00000221  A$main$97 |    00000222  A$main$98
     00000223  A$main$99 |    00000224  A$main$10 |    00000225  A$main$10
     00000226  A$main$10 |    00000227  A$main$10 |    00000228  A$main$10
     00000229  A$main$10 |    0000022B  A$main$11 |    0000022D  A$main$11
     0000022E  A$main$11 |    0000022F  A$main$11 |    00000230  A$main$11
     00000231  A$main$11 |    00000232  A$main$11 |    00000233  A$main$11
     00000235  A$main$11 |    00000236  A$main$11 |    00000237  A$main$12
     00000239  A$main$12 |    0000023A  A$main$12 |    0000023B  A$main$12
     0000023C  A$main$12 |    0000023D  A$main$12 |    0000023E  A$main$12
     0000023F  A$main$12 |    00000240  A$main$12 |    00000241  A$main$12
     00000242  A$main$13 |    00000243  A$main$13 |    00000244  A$main$13
     00000245  A$main$13 |    00000246  A$main$13 |    00000247  A$main$13
     00000249  A$main$13 |    00000249  C$system. |    0000024C  A$main$14
     0000024C  C$system. |    0000024D  A$main$14 |    0000024F  A$main$14
     00000251  A$main$15 |    00000251  C$system. |    00000251  XG$cpu_wa
     00000252  A$main$16 |    00000252  C$sprites |    00000252  C$sprites
     00000252  G$init_sp |    00000252  _init_spr |    00000254  A$main$16
     00000255  A$main$16 |    00000256  A$main$17 |    00000257  A$main$17
     00000258  A$main$17 |    00000258  C$sprites |    00000259  A$main$17
     0000025A  A$main$17 |    0000025B  A$main$17 |    0000025C  A$main$17
     0000025D  A$main$18 |    0000025D  C$sprites |    0000025E  A$main$18
     0000025F  A$main$18 |    00000260  A$main$18 |    00000261  A$main$18
     00000262  A$main$18 |    00000263  A$main$19 |    00000263  C$sprites
     00000264  A$main$19 |    00000265  A$main$19 |    00000266  A$main$19
     00000267  A$main$19 |    00000268  A$main$19 |    00000269  A$main$19
     0000026A  A$main$19 |    0000026B  A$main$20 |    0000026C  A$main$20
     0000026C  C$sprites |    0000026F  A$main$20 |    00000270  A$main$20
     00000271  A$main$20 |    00000272  A$main$20 |    00000274  A$main$20
     00000275  A$main$21 |    00000276  A$main$21 |    00000276  C$sprites
     00000279  A$main$21 |    0000027A  A$main$21 |    0000027B  A$main$21
     0000027C  A$main$21 |    0000027E  A$main$21 |    0000027F  A$main$22
     00000280  A$main$22 |    00000280  C$sprites |    00000283  A$main$22
     00000284  A$main$22 |    00000285  A$main$22 |    00000286  A$main$22
     00000288  A$main$22 |    00000289  A$main$23 |    0000028A  A$main$23
     0000028A  C$sprites |    0000028A  XG$init_s |    0000028B  A$main$24
     0000028B  C$sprites |    0000028B  G$init_16 |    0000028B  _init_16x
     0000028D  A$main$25 |    0000028D  C$sprites |    0000028F  A$main$25
     00000290  A$main$25 |    00000291  A$main$25 |    00000292  A$main$25
     00000293  A$main$26 |    00000293  C$sprites |    00000294  A$main$26
     00000295  A$main$26 |    00000296  A$main$26 |    00000297  A$main$26
     00000298  A$main$26 |    00000298  C$sprites |    00000299  A$main$26
ASxxxx Linker V03.00 + NoICE + sdld,  page 4.
Hexadecimal  [32-Bits]

Area                       Addr        Size        Decimal Bytes (Attributes)
--------------------       ----        ----        ------- ----- ------------
_CODE                  00000200    00000D6B =        3435. bytes (REL,CON)

        Value  Global            Value  Global            Value  Global    
        -----  ------            -----  ------            -----  ------    
     0000029A  A$main$27 |    0000029B  A$main$27 |    0000029C  A$main$27
     0000029D  A$main$27 |    0000029E  A$main$27 |    0000029E  C$sprites
     0000029F  A$main$27 |    000002A0  A$main$27 |    000002A1  A$main$28
     000002A2  A$main$28 |    000002A3  A$main$28 |    000002A4  A$main$28
     000002A5  A$main$28 |    000002A6  A$main$28 |    000002A7  A$main$28
     000002A7  C$sprites |    000002AA  A$main$29 |    000002AB  A$main$29
     000002AC  A$main$29 |    000002AD  A$main$29 |    000002AF  A$main$29
     000002B0  A$main$29 |    000002B1  A$main$29 |    000002B1  C$sprites
     000002B4  A$main$30 |    000002B5  A$main$30 |    000002B6  A$main$30
     000002B7  A$main$30 |    000002B9  A$main$30 |    000002BA  A$main$30
     000002BB  A$main$30 |    000002BB  C$sprites |    000002BE  A$main$31
     000002BF  A$main$31 |    000002C0  A$main$31 |    000002C1  A$main$31
     000002C3  A$main$31 |    000002C4  A$main$31 |    000002C5  A$main$31
     000002C6  A$main$31 |    000002C7  A$main$31 |    000002C8  A$main$32
     000002C8  C$sprites |    000002CB  A$main$32 |    000002CC  A$main$32
     000002CD  A$main$32 |    000002CE  A$main$32 |    000002CF  A$main$32
     000002D0  A$main$32 |    000002D1  A$main$32 |    000002D3  A$main$33
     000002D4  A$main$33 |    000002D5  A$main$33 |    000002D6  A$main$33
     000002D7  A$main$33 |    000002D8  A$main$33 |    000002D8  C$sprites
     000002DB  A$main$33 |    000002DC  A$main$34 |    000002DD  A$main$34
     000002DE  A$main$34 |    000002E0  A$main$34 |    000002E1  A$main$34
     000002E2  A$main$34 |    000002E3  A$main$34 |    000002E5  A$main$34
     000002E6  A$main$34 |    000002E7  A$main$34 |    000002E8  A$main$35
     000002E9  A$main$35 |    000002EB  A$main$35 |    000002EC  A$main$35
     000002ED  A$main$35 |    000002EE  A$main$35 |    000002EF  A$main$35
     000002F0  A$main$36 |    000002F0  C$sprites |    000002F3  A$main$36
     000002F4  A$main$36 |    000002F5  A$main$36 |    000002F6  A$main$36
     000002F8  A$main$36 |    000002F9  A$main$36 |    000002FA  A$main$36
     000002FB  A$main$36 |    000002FD  A$main$36 |    000002FE  A$main$37
     000002FF  A$main$37 |    00000300  A$main$37 |    00000301  A$main$37
     00000303  A$main$37 |    00000304  A$main$37 |    00000305  A$main$37
     00000306  A$main$37 |    00000307  A$main$37 |    00000308  A$main$38
     00000308  C$sprites |    0000030A  A$main$38 |    0000030B  A$main$38
     0000030C  A$main$38 |    0000030D  A$main$38 |    0000030F  A$main$38
     00000310  A$main$38 |    00000311  A$main$39 |    00000311  C$sprites
     00000313  A$main$39 |    00000314  A$main$39 |    00000315  A$main$39
     00000316  A$main$39 |    00000318  A$main$39 |    00000319  A$main$39
     0000031A  A$main$39 |    0000031B  A$main$40 |    0000031C  A$main$40
     0000031C  C$sprites |    0000031E  A$main$40 |    0000031F  A$main$40
     00000320  A$main$41 |    00000320  C$sprites |    00000321  A$main$41
     00000322  A$main$41 |    00000323  A$main$41 |    00000324  A$main$41
     00000325  A$main$41 |    00000326  A$main$41 |    00000327  A$main$41
     00000328  A$main$41 |    00000329  A$main$41 |    0000032A  A$main$42
     0000032B  A$main$42 |    0000032C  A$main$42 |    0000032D  A$main$42
     0000032E  A$main$42 |    0000032E  C$sprites |    00000330  A$main$42
     00000331  A$main$42 |    00000332  A$main$43 |    00000333  A$main$43
     00000334  A$main$43 |    00000335  A$main$43 |    00000337  A$main$43
     00000338  A$main$43 |    00000339  A$main$43 |    0000033A  A$main$43
     0000033B  A$main$43 |    0000033C  A$main$43 |    0000033D  A$main$44
     0000033E  A$main$44 |    00000341  A$main$44 |    00000342  A$main$44
     00000344  A$main$44 |    00000345  A$main$44 |    00000346  A$main$44
ASxxxx Linker V03.00 + NoICE + sdld,  page 5.
Hexadecimal  [32-Bits]

Area                       Addr        Size        Decimal Bytes (Attributes)
--------------------       ----        ----        ------- ----- ------------
_CODE                  00000200    00000D6B =        3435. bytes (REL,CON)

        Value  Global            Value  Global            Value  Global    
        -----  ------            -----  ------            -----  ------    
     00000348  A$main$44 |    00000349  A$main$44 |    0000034A  A$main$45
     0000034A  C$sprites |    0000034C  A$main$45 |    0000034D  A$main$45
     0000034E  A$main$45 |    0000034F  A$main$45 |    00000350  A$main$45
     00000352  A$main$45 |    00000353  A$main$45 |    00000354  A$main$46
     00000355  A$main$46 |    00000356  A$main$46 |    00000356  C$sprites
     00000358  A$main$46 |    00000359  A$main$46 |    0000035A  A$main$47
     0000035A  C$sprites |    0000035B  A$main$47 |    0000035C  A$main$47
     0000035D  A$main$47 |    0000035E  A$main$47 |    0000035F  A$main$47
     00000360  A$main$47 |    00000361  A$main$47 |    00000362  A$main$47
     00000363  A$main$48 |    00000364  A$main$48 |    00000365  A$main$48
     00000366  A$main$48 |    00000367  A$main$48 |    00000368  A$main$48
     00000369  A$main$48 |    0000036A  A$main$49 |    0000036A  C$sprites
     0000036C  A$main$49 |    0000036D  A$main$49 |    0000036E  A$main$49
     0000036F  A$main$49 |    00000370  A$main$49 |    00000371  A$main$49
     00000372  A$main$49 |    00000374  A$main$49 |    00000375  A$main$49
     00000376  A$main$50 |    00000377  A$main$50 |    00000378  A$main$50
     0000037B  A$main$50 |    0000037C  A$main$50 |    0000037D  A$main$50
     0000037E  A$main$50 |    0000037F  A$main$50 |    00000380  A$main$51
     00000380  C$sprites |    00000382  A$main$51 |    00000383  A$main$51
     00000384  A$main$51 |    00000384  C$sprites |    00000385  A$main$51
     00000386  A$main$51 |    00000387  A$main$52 |    00000388  A$main$52
     00000389  A$main$52 |    0000038A  A$main$52 |    0000038B  A$main$52
     0000038C  A$main$52 |    0000038D  A$main$52 |    0000038E  A$main$53
     0000038E  C$sprites |    0000038F  A$main$53 |    00000390  A$main$53
     00000391  A$main$53 |    00000392  A$main$53 |    00000393  A$main$53
     00000394  A$main$53 |    00000395  A$main$53 |    00000396  A$main$53
     00000397  A$main$53 |    00000398  A$main$54 |    00000399  A$main$54
     0000039A  A$main$54 |    0000039B  A$main$54 |    0000039C  A$main$54
     0000039D  A$main$54 |    0000039E  A$main$54 |    0000039F  A$main$54
     000003A0  A$main$55 |    000003A0  C$sprites |    000003A2  A$main$55
     000003A3  A$main$55 |    000003A4  A$main$55 |    000003A5  A$main$55
     000003A6  A$main$55 |    000003A7  A$main$55 |    000003A8  A$main$55
     000003AA  A$main$55 |    000003AB  A$main$56 |    000003AC  A$main$56
     000003AC  C$sprites |    000003AE  A$main$56 |    000003AF  A$main$56
     000003B0  A$main$56 |    000003B1  A$main$56 |    000003B2  A$main$56
     000003B3  A$main$57 |    000003B4  A$main$57 |    000003B6  A$main$57
     000003B7  A$main$57 |    000003B9  A$main$57 |    000003BA  A$main$57
     000003BB  A$main$57 |    000003BB  C$sprites |    000003BD  A$main$58
     000003BE  A$main$58 |    000003BF  A$main$58 |    000003C0  A$main$58
     000003C1  A$main$58 |    000003C2  A$main$58 |    000003C3  A$main$58
     000003C5  A$main$58 |    000003C6  A$main$58 |    000003C7  A$main$59
     000003C7  C$sprites |    000003C9  A$main$59 |    000003CA  A$main$59
     000003CB  A$main$59 |    000003CC  A$main$59 |    000003CD  A$main$59
     000003CE  A$main$59 |    000003CF  A$main$59 |    000003D0  A$main$60
     000003D1  A$main$60 |    000003D1  C$sprites |    000003D3  A$main$60
     000003D4  A$main$60 |    000003D5  A$main$60 |    000003D6  A$main$60
     000003D9  A$main$60 |    000003DA  A$main$61 |    000003DB  A$main$61
     000003DC  A$main$61 |    000003DE  A$main$61 |    000003DF  A$main$61
     000003E0  A$main$61 |    000003E0  C$sprites |    000003E2  A$main$61
     000003E3  A$main$62 |    000003E4  A$main$62 |    000003E5  A$main$62
     000003E8  A$main$62 |    000003E9  A$main$62 |    000003EA  A$main$62
ASxxxx Linker V03.00 + NoICE + sdld,  page 6.
Hexadecimal  [32-Bits]

Area                       Addr        Size        Decimal Bytes (Attributes)
--------------------       ----        ----        ------- ----- ------------
_CODE                  00000200    00000D6B =        3435. bytes (REL,CON)

        Value  Global            Value  Global            Value  Global    
        -----  ------            -----  ------            -----  ------    
     000003EB  A$main$62 |    000003ED  A$main$62 |    000003EE  A$main$62
     000003EF  A$main$63 |    000003EF  C$sprites |    000003F1  A$main$63
     000003F2  A$main$63 |    000003F3  A$main$63 |    000003F4  A$main$63
     000003F7  A$main$63 |    000003F8  A$main$63 |    000003F9  A$main$63
     000003FA  A$main$64 |    000003FC  A$main$64 |    000003FD  A$main$64
     000003FF  A$main$64 |    00000400  A$main$64 |    00000401  A$main$64
     00000401  C$sprites |    00000403  A$main$64 |    00000404  A$main$65
     00000405  A$main$65 |    00000406  A$main$65 |    00000409  A$main$65
     0000040A  A$main$65 |    0000040B  A$main$65 |    0000040C  A$main$65
     0000040D  A$main$65 |    0000040E  A$main$66 |    0000040E  C$sprites
     00000411  A$main$66 |    00000412  A$main$66 |    00000414  A$main$66
     00000415  A$main$66 |    00000416  A$main$66 |    00000417  A$main$66
     00000418  A$main$66 |    00000419  A$main$66 |    0000041A  A$main$67
     0000041C  A$main$67 |    0000041D  A$main$67 |    0000041E  A$main$67
     0000041F  A$main$67 |    00000421  A$main$67 |    00000422  A$main$67
     00000423  A$main$67 |    00000424  A$main$67 |    00000426  A$main$67
     00000427  A$main$68 |    00000428  A$main$68 |    00000429  A$main$68
     0000042A  A$main$68 |    0000042D  A$main$68 |    0000042F  A$main$68
     0000042F  C$sprites |    00000430  A$main$68 |    00000431  A$main$69
     00000432  A$main$69 |    00000433  A$main$69 |    00000434  A$main$69
     00000435  A$main$69 |    00000436  A$main$69 |    00000439  A$main$69
     0000043A  A$main$69 |    0000043B  A$main$69 |    0000043D  A$main$69
     0000043E  A$main$70 |    0000043F  A$main$70 |    00000440  A$main$70
     00000441  A$main$70 |    00000442  A$main$70 |    00000443  A$main$70
     00000444  A$main$70 |    00000446  A$main$70 |    00000447  A$main$70
     00000448  A$main$71 |    00000449  A$main$71 |    0000044A  A$main$71
     0000044B  A$main$71 |    0000044C  A$main$71 |    0000044D  A$main$72
     0000044E  A$main$72 |    0000044F  A$main$72 |    00000450  A$main$72
     00000451  A$main$72 |    00000453  A$main$72 |    00000454  A$main$73
     00000455  A$main$73 |    00000457  A$main$73 |    00000458  A$main$73
     00000459  A$main$73 |    0000045B  A$main$73 |    0000045C  A$main$74
     0000045D  A$main$74 |    0000045E  A$main$74 |    00000460  A$main$74
     00000461  A$main$74 |    00000462  A$main$74 |    00000463  A$main$74
     00000464  A$main$74 |    00000465  A$main$75 |    00000466  A$main$75
     00000467  A$main$75 |    00000468  A$main$75 |    00000469  A$main$75
     0000046A  A$main$75 |    0000046B  A$main$75 |    0000046E  A$main$75
     00000470  A$main$76 |    00000470  C$sprites |    00000472  A$main$76
     00000473  A$main$76 |    00000474  A$main$76 |    00000475  A$main$76
     00000476  A$main$76 |    00000477  A$main$76 |    00000478  A$main$77
     00000479  A$main$77 |    0000047A  A$main$77 |    0000047D  A$main$77
     0000047E  A$main$77 |    0000047F  A$main$77 |    00000481  A$main$77
     00000482  A$main$77 |    00000483  A$main$77 |    00000484  A$main$77
     00000485  A$main$78 |    00000486  A$main$78 |    00000487  A$main$78
     00000488  A$main$78 |    0000048A  A$main$78 |    0000048B  A$main$78
     0000048C  A$main$78 |    0000048D  A$main$79 |    0000048E  A$main$79
     0000048F  A$main$79 |    00000490  A$main$79 |    00000491  A$main$79
     00000492  A$main$80 |    00000493  A$main$80 |    00000494  A$main$80
     00000495  A$main$80 |    00000497  A$main$80 |    00000498  A$main$80
     00000499  A$main$80 |    0000049B  A$main$81 |    0000049C  A$main$81
     0000049D  A$main$81 |    0000049F  A$main$81 |    000004A0  A$main$81
     000004A1  A$main$81 |    000004A2  A$main$81 |    000004A4  A$main$82
ASxxxx Linker V03.00 + NoICE + sdld,  page 7.
Hexadecimal  [32-Bits]

Area                       Addr        Size        Decimal Bytes (Attributes)
--------------------       ----        ----        ------- ----- ------------
_CODE                  00000200    00000D6B =        3435. bytes (REL,CON)

        Value  Global            Value  Global            Value  Global    
        -----  ------            -----  ------            -----  ------    
     000004A5  A$main$82 |    000004A6  A$main$82 |    000004A7  A$main$82
     000004A8  A$main$82 |    000004A9  A$main$82 |    000004AA  A$main$83
     000004AB  A$main$83 |    000004AC  A$main$83 |    000004AD  A$main$83
     000004AE  A$main$83 |    000004AF  A$main$83 |    000004B2  A$main$83
     000004B4  A$main$84 |    000004B4  C$sprites |    000004B6  A$main$84
     000004B7  A$main$84 |    000004B8  A$main$84 |    000004B9  A$main$84
     000004BA  A$main$84 |    000004BB  A$main$84 |    000004BC  A$main$84
     000004BD  A$main$84 |    000004BE  A$main$84 |    000004C1  A$main$85
     000004C2  A$main$85 |    000004C3  A$main$85 |    000004C5  A$main$85
     000004C6  A$main$85 |    000004C7  A$main$85 |    000004C8  A$main$85
     000004C9  A$main$85 |    000004CA  A$main$85 |    000004CB  A$main$85
     000004CC  A$main$86 |    000004CE  A$main$86 |    000004CF  A$main$86
     000004D0  A$main$86 |    000004D1  A$main$86 |    000004D2  A$main$86
     000004D3  A$main$87 |    000004D4  A$main$87 |    000004D5  A$main$87
     000004D6  A$main$87 |    000004D7  A$main$87 |    000004D8  A$main$87
     000004D9  A$main$88 |    000004DB  A$main$88 |    000004DC  A$main$88
     000004DD  A$main$88 |    000004DF  A$main$88 |    000004E0  A$main$88
     000004E1  A$main$89 |    000004E3  A$main$89 |    000004E4  A$main$89
     000004E5  A$main$89 |    000004E6  A$main$89 |    000004E8  A$main$89
     000004E9  A$main$90 |    000004EA  A$main$90 |    000004EB  A$main$90
     000004EC  A$main$90 |    000004ED  A$main$90 |    000004EE  A$main$90
     000004EF  A$main$90 |    000004F0  A$main$90 |    000004F1  A$main$91
     000004F2  A$main$91 |    000004F3  A$main$91 |    000004F6  A$main$91
     000004F8  A$main$92 |    000004F8  C$sprites |    000004F8  XG$init_1
     000004F9  A$main$93 |    000004F9  C$sprites |    000004F9  G$setup_s
     000004F9  _setup_sp |    000004FA  A$main$93 |    000004FA  C$sprites
     000004FC  A$main$93 |    000004FD  A$main$93 |    000004FE  A$main$93
     000004FF  A$main$93 |    00000500  A$main$94 |    00000501  A$main$94
     00000502  A$main$94 |    00000503  A$main$94 |    00000504  A$main$94
     00000506  A$main$94 |    00000507  A$main$94 |    00000508  A$main$94
     00000509  A$main$94 |    0000050A  A$main$94 |    0000050B  A$main$95
     0000050C  A$main$95 |    0000050D  A$main$95 |    0000050F  A$main$95
     00000510  A$main$95 |    00000511  A$main$95 |    00000512  A$main$96
     00000513  A$main$96 |    00000514  A$main$96 |    00000516  A$main$96
     00000517  A$main$96 |    00000518  A$main$96 |    00000519  A$main$96
     0000051A  A$main$96 |    0000051B  A$main$97 |    0000051E  A$main$97
     00000520  A$main$97 |    00000521  A$main$97 |    00000522  A$main$97
     00000523  A$main$97 |    00000524  A$main$97 |    00000525  A$main$98
     00000527  A$main$98 |    00000528  A$main$98 |    00000529  A$main$98
     0000052A  A$main$98 |    0000052D  A$main$98 |    0000052E  A$main$98
     0000052F  A$main$99 |    00000530  A$main$99 |    00000531  A$main$99
     00000532  A$main$99 |    00000535  A$main$99 |    00000536  A$main$99
     00000537  A$main$99 |    00000538  A$main$99 |    00000539  A$main$99
     0000053A  A$main$10 |    0000053B  A$main$10 |    0000053C  A$main$10
     0000053F  A$main$10 |    00000540  A$main$10 |    00000541  A$main$10
     00000542  A$main$10 |    00000542  C$sprites |    00000544  A$main$10
     00000546  A$main$10 |    00000548  A$main$10 |    00000549  A$main$10
     00000549  C$sprites |    00000549  XG$setup_ |    0000054A  A$main$10
     0000054A  C$sprites |    0000054A  G$setup_1 |    0000054A  _setup_16
     0000054C  A$main$10 |    0000054C  C$sprites |    0000054E  A$main$10
     0000054F  A$main$10 |    00000550  A$main$10 |    00000551  A$main$10
ASxxxx Linker V03.00 + NoICE + sdld,  page 8.
Hexadecimal  [32-Bits]

Area                       Addr        Size        Decimal Bytes (Attributes)
--------------------       ----        ----        ------- ----- ------------
_CODE                  00000200    00000D6B =        3435. bytes (REL,CON)

        Value  Global            Value  Global            Value  Global    
        -----  ------            -----  ------            -----  ------    
     00000552  A$main$10 |    00000553  A$main$10 |    00000554  A$main$10
     00000555  A$main$10 |    00000556  A$main$10 |    00000557  A$main$10
     00000558  A$main$10 |    00000559  A$main$10 |    0000055A  A$main$10
     0000055C  A$main$10 |    0000055D  A$main$10 |    0000055E  A$main$10
     0000055F  A$main$10 |    00000560  A$main$10 |    00000561  A$main$10
     00000564  A$main$10 |    00000566  A$main$10 |    00000569  A$main$10
     0000056A  A$main$10 |    0000056B  A$main$10 |    0000056C  A$main$10
     0000056D  A$main$10 |    0000056E  A$main$10 |    0000056F  A$main$10
     00000570  A$main$10 |    00000571  A$main$10 |    00000572  A$main$10
     00000573  A$main$10 |    00000574  A$main$10 |    00000575  A$main$10
     00000576  A$main$10 |    00000577  A$main$10 |    00000578  A$main$10
     00000579  A$main$10 |    0000057A  A$main$10 |    0000057B  A$main$10
     0000057D  A$main$10 |    0000057E  A$main$11 |    0000057F  A$main$11
     00000580  A$main$11 |    00000583  A$main$11 |    00000584  A$main$11
     00000585  A$main$11 |    00000586  A$main$11 |    00000587  A$main$11
     00000588  A$main$11 |    0000058B  A$main$11 |    0000058C  A$main$11
     0000058D  A$main$11 |    0000058E  A$main$11 |    00000590  A$main$11
     00000591  A$main$11 |    00000592  A$main$11 |    00000593  A$main$11
     00000595  A$main$11 |    00000596  A$main$11 |    00000597  A$main$11
     00000598  A$main$11 |    00000599  A$main$11 |    0000059A  A$main$11
     0000059B  A$main$11 |    0000059C  A$main$11 |    0000059D  A$main$11
     0000059E  A$main$11 |    0000059F  A$main$11 |    000005A0  A$main$11
     000005A1  A$main$11 |    000005A2  A$main$11 |    000005A3  A$main$11
     000005A4  A$main$11 |    000005A5  A$main$11 |    000005A7  A$main$11
     000005A8  A$main$11 |    000005A9  A$main$11 |    000005AA  A$main$11
     000005AD  A$main$11 |    000005AE  A$main$11 |    000005AF  A$main$11
     000005B0  A$main$11 |    000005B1  A$main$11 |    000005B2  A$main$11
     000005B5  A$main$11 |    000005B6  A$main$11 |    000005B7  A$main$11
     000005B8  A$main$11 |    000005BA  A$main$11 |    000005BB  A$main$11
     000005BC  A$main$11 |    000005BD  A$main$11 |    000005BF  A$main$11
     000005C0  A$main$11 |    000005C1  A$main$11 |    000005C2  A$main$11
     000005C3  A$main$11 |    000005C4  A$main$11 |    000005C5  A$main$11
     000005C6  A$main$11 |    000005C7  A$main$11 |    000005C8  A$main$11
     000005C9  A$main$11 |    000005CA  A$main$11 |    000005CB  A$main$11
     000005CC  A$main$11 |    000005CD  A$main$11 |    000005CE  A$main$11
     000005CF  A$main$11 |    000005D1  A$main$11 |    000005D2  A$main$11
     000005D3  A$main$11 |    000005D4  A$main$11 |    000005D7  A$main$11
     000005D8  A$main$11 |    000005D9  A$main$11 |    000005DA  A$main$11
     000005DB  A$main$11 |    000005DC  A$main$11 |    000005DF  A$main$12
     000005E0  A$main$12 |    000005E1  A$main$12 |    000005E2  A$main$12
     000005E4  A$main$12 |    000005E5  A$main$12 |    000005E6  A$main$12
     000005E7  A$main$12 |    000005E9  A$main$12 |    000005EA  A$main$12
     000005EB  A$main$12 |    000005EC  A$main$12 |    000005ED  A$main$12
     000005EE  A$main$12 |    000005EF  A$main$12 |    000005F0  A$main$12
     000005F1  A$main$12 |    000005F2  A$main$12 |    000005F3  A$main$12
     000005F4  A$main$12 |    000005F5  A$main$12 |    000005F6  A$main$12
     000005F7  A$main$12 |    000005F8  A$main$12 |    000005FB  A$main$12
     000005FD  A$main$12 |    000005FE  A$main$12 |    000005FF  A$main$12
     00000600  A$main$12 |    00000601  A$main$12 |    00000602  A$main$12
     00000603  A$main$12 |    00000604  A$main$12 |    00000605  A$main$12
     00000606  A$main$12 |    00000607  A$main$12 |    00000608  A$main$12
ASxxxx Linker V03.00 + NoICE + sdld,  page 9.
Hexadecimal  [32-Bits]

Area                       Addr        Size        Decimal Bytes (Attributes)
--------------------       ----        ----        ------- ----- ------------
_CODE                  00000200    00000D6B =        3435. bytes (REL,CON)

        Value  Global            Value  Global            Value  Global    
        -----  ------            -----  ------            -----  ------    
     00000609  A$main$12 |    0000060A  A$main$12 |    0000060D  A$main$12
     0000060E  A$main$12 |    0000060F  A$main$12 |    00000610  A$main$12
     00000611  A$main$12 |    00000612  A$main$12 |    00000613  A$main$12
     00000614  A$main$12 |    00000615  A$main$12 |    00000616  A$main$12
     00000617  A$main$12 |    00000619  A$main$12 |    0000061A  A$main$12
     0000061B  A$main$12 |    0000061E  A$main$12 |    0000061F  A$main$12
     00000620  A$main$12 |    00000621  A$main$12 |    00000622  A$main$12
     00000624  A$main$12 |    00000625  A$main$12 |    00000626  A$main$12
     00000627  A$main$12 |    00000628  A$main$12 |    00000629  A$main$12
     0000062A  A$main$12 |    0000062B  A$main$12 |    0000062C  A$main$12
     0000062F  A$main$12 |    00000630  A$main$12 |    00000631  A$main$12
     00000632  A$main$12 |    00000633  A$main$12 |    00000634  A$main$12
     00000635  A$main$12 |    00000636  A$main$12 |    00000637  A$main$13
     00000638  A$main$13 |    00000639  A$main$13 |    0000063B  A$main$13
     0000063C  A$main$13 |    0000063D  A$main$13 |    00000640  A$main$13
     00000641  A$main$13 |    00000642  A$main$13 |    00000643  A$main$13
     00000644  A$main$13 |    00000646  A$main$13 |    00000647  A$main$13
     00000648  A$main$13 |    00000649  A$main$13 |    0000064A  A$main$13
     0000064B  A$main$13 |    0000064C  A$main$13 |    0000064D  A$main$13
     0000064E  A$main$13 |    00000651  A$main$13 |    00000652  A$main$13
     00000653  A$main$13 |    00000654  A$main$13 |    00000655  A$main$13
     00000656  A$main$13 |    00000657  A$main$13 |    00000658  A$main$13
     00000659  A$main$13 |    0000065A  A$main$13 |    0000065B  A$main$13
     0000065D  A$main$13 |    0000065E  A$main$13 |    0000065F  A$main$13
     00000662  A$main$13 |    00000663  A$main$13 |    00000664  A$main$13
     00000665  A$main$13 |    00000666  A$main$13 |    00000668  A$main$13
     00000669  A$main$13 |    0000066A  A$main$13 |    0000066B  A$main$13
     0000066C  A$main$13 |    0000066D  A$main$13 |    0000066E  A$main$13
     0000066F  A$main$13 |    00000670  A$main$13 |    00000673  A$main$13
     00000674  A$main$13 |    00000675  A$main$13 |    00000676  A$main$13
     00000677  A$main$13 |    00000678  A$main$13 |    00000679  A$main$13
     0000067A  A$main$13 |    0000067B  A$main$13 |    0000067C  A$main$13
     0000067D  A$main$13 |    0000067F  A$main$13 |    00000680  A$main$13
     00000681  A$main$13 |    00000684  A$main$13 |    00000685  A$main$13
     00000686  A$main$13 |    00000687  A$main$13 |    00000688  A$main$13
     00000688  C$sprites |    0000068A  A$main$13 |    0000068C  A$main$13
     0000068E  A$main$14 |    00000690  A$main$14 |    00000690  C$sprites
     00000690  XG$setup_ |    00000691  A$main$14 |    00000691  C$sprites
     00000691  G$change_ |    00000691  _change_s |    00000693  A$main$14
     00000695  A$main$14 |    00000696  A$main$14 |    00000697  A$main$14
     00000698  A$main$14 |    00000699  A$main$14 |    0000069B  A$main$14
     0000069C  A$main$14 |    0000069D  A$main$14 |    0000069F  A$main$14
     000006A0  A$main$14 |    000006A1  A$main$14 |    000006A4  A$main$14
     000006A5  A$main$14 |    000006A6  A$main$14 |    000006A7  A$main$14
     000006A8  A$main$14 |    000006AA  A$main$14 |    000006AB  A$main$14
     000006AB  C$sprites |    000006AC  A$main$14 |    000006AD  A$main$14
     000006AE  A$main$14 |    000006AF  A$main$14 |    000006B1  A$main$14
     000006B2  A$main$14 |    000006B4  A$main$14 |    000006B5  A$main$14
     000006B6  A$main$14 |    000006B7  A$main$14 |    000006B8  A$main$14
     000006B9  A$main$14 |    000006BA  A$main$14 |    000006BB  A$main$14
     000006BC  A$main$14 |    000006BD  A$main$14 |    000006BE  A$main$14
ASxxxx Linker V03.00 + NoICE + sdld,  page 10.
Hexadecimal  [32-Bits]

Area                       Addr        Size        Decimal Bytes (Attributes)
--------------------       ----        ----        ------- ----- ------------
_CODE                  00000200    00000D6B =        3435. bytes (REL,CON)

        Value  Global            Value  Global            Value  Global    
        -----  ------            -----  ------            -----  ------    
     000006C0  A$main$14 |    000006C2  A$main$14 |    000006C4  A$main$14
     000006C6  A$main$14 |    000006C7  A$main$14 |    000006C9  A$main$14
     000006CB  A$main$14 |    000006CD  A$main$14 |    000006CE  A$main$14
     000006D0  A$main$14 |    000006D2  A$main$14 |    000006D3  A$main$14
     000006D4  A$main$14 |    000006D5  A$main$14 |    000006D8  A$main$14
     000006D9  A$main$14 |    000006DB  A$main$14 |    000006DC  A$main$14
     000006DD  A$main$14 |    000006DE  A$main$14 |    000006DF  A$main$14
     000006E0  A$main$14 |    000006E1  A$main$14 |    000006E1  C$sprites
     000006E3  A$main$14 |    000006E5  A$main$14 |    000006E6  A$main$14
     000006E8  A$main$14 |    000006E9  A$main$14 |    000006EA  A$main$15
     000006ED  A$main$15 |    000006EE  A$main$15 |    000006EF  A$main$15
     000006F0  A$main$15 |    000006F2  A$main$15 |    000006F2  C$sprites
     000006F4  A$main$15 |    000006F4  C$sprites |    000006F4  XG$change
     000006F5  A$main$15 |    000006F5  C$sprites |    000006F5  G$animate
     000006F5  _animate_ |    000006F7  A$main$15 |    000006F9  A$main$15
     000006FA  A$main$15 |    000006FB  A$main$15 |    000006FC  A$main$15
     000006FF  A$main$15 |    00000700  A$main$15 |    00000701  A$main$15
     00000702  A$main$15 |    00000703  A$main$15 |    00000705  A$main$15
     00000707  A$main$15 |    00000708  A$main$15 |    00000709  A$main$15
     0000070A  A$main$15 |    0000070C  A$main$15 |    0000070D  A$main$15
     0000070E  A$main$15 |    0000070F  A$main$15 |    00000711  A$main$15
     00000712  A$main$15 |    00000713  A$main$15 |    00000715  A$main$15
     00000716  A$main$15 |    00000717  A$main$15 |    00000718  A$main$15
     0000071B  A$main$15 |    0000071C  A$main$15 |    0000071D  A$main$15
     0000071E  A$main$15 |    0000071F  A$main$15 |    00000720  A$main$15
     00000722  A$main$15 |    00000723  A$main$15 |    00000724  A$main$15
     00000724  C$sprites |    00000725  A$main$15 |    00000728  A$main$15
     00000729  A$main$15 |    0000072C  A$main$15 |    0000072D  A$main$15
     0000072E  A$main$15 |    0000072E  C$sprites |    00000730  A$main$15
     00000731  A$main$15 |    00000733  A$main$15 |    00000735  A$main$15
     00000735  C$sprites |    00000735  XG$animat |    00000736  A$main$16
     00000736  C$sprites |    00000736  G$transla |    00000736  _translat
     00000739  A$main$16 |    0000073A  A$main$16 |    0000073A  C$sprites
     0000073C  A$main$16 |    0000073D  A$main$16 |    0000073E  A$main$16
     0000073F  A$main$16 |    0000073F  C$sprites |    00000740  A$main$16
     00000741  A$main$16 |    00000743  A$main$16 |    00000744  A$main$16
     00000746  A$main$16 |    00000748  A$main$16 |    0000074A  A$main$16
     0000074C  A$main$16 |    0000074E  A$main$16 |    00000750  A$main$16
     00000752  A$main$16 |    00000752  C$sprites |    00000753  A$main$16
     00000754  A$main$16 |    00000756  A$main$16 |    00000757  A$main$16
     00000758  A$main$16 |    00000759  A$main$16 |    0000075C  A$main$16
     0000075D  A$main$16 |    0000075E  A$main$16 |    0000075F  A$main$16
     00000760  A$main$16 |    00000761  A$main$16 |    00000761  C$sprites
     00000762  A$main$16 |    00000765  A$main$16 |    00000766  A$main$16
     00000766  C$sprites |    00000768  A$main$16 |    00000768  C$sprites
     00000769  A$main$16 |    0000076A  A$main$16 |    0000076C  A$main$16
     0000076D  A$main$16 |    0000076E  A$main$16 |    00000771  A$main$16
     00000772  A$main$16 |    00000773  A$main$16 |    00000774  A$main$16
     00000775  A$main$16 |    00000776  A$main$16 |    00000776  C$sprites
     00000777  A$main$16 |    0000077A  A$main$16 |    0000077B  A$main$16
     0000077B  C$sprites |    0000077D  A$main$16 |    0000077D  C$sprites
ASxxxx Linker V03.00 + NoICE + sdld,  page 11.
Hexadecimal  [32-Bits]

Area                       Addr        Size        Decimal Bytes (Attributes)
--------------------       ----        ----        ------- ----- ------------
_CODE                  00000200    00000D6B =        3435. bytes (REL,CON)

        Value  Global            Value  Global            Value  Global    
        -----  ------            -----  ------            -----  ------    
     0000077E  A$main$16 |    0000077F  A$main$17 |    00000781  A$main$17
     00000782  A$main$17 |    00000783  A$main$17 |    00000784  A$main$17
     00000787  A$main$17 |    00000788  A$main$17 |    00000789  A$main$17
     0000078A  A$main$17 |    0000078B  A$main$17 |    0000078C  A$main$17
     0000078D  A$main$17 |    0000078D  C$sprites |    0000078E  A$main$17
     00000791  A$main$17 |    00000792  A$main$17 |    00000792  C$sprites
     00000794  A$main$17 |    00000794  C$sprites |    00000795  A$main$17
     00000796  A$main$17 |    00000798  A$main$17 |    00000799  A$main$17
     0000079A  A$main$17 |    0000079B  A$main$17 |    0000079E  A$main$17
     0000079F  A$main$17 |    000007A0  A$main$17 |    000007A1  A$main$17
     000007A2  A$main$17 |    000007A3  A$main$17 |    000007A4  A$main$17
     000007A4  C$sprites |    000007A5  A$main$17 |    000007A8  A$main$17
     000007A9  A$main$17 |    000007A9  C$sprites |    000007A9  C$sprites
     000007AB  A$main$17 |    000007AC  A$main$17 |    000007AD  A$main$17
     000007B0  A$main$17 |    000007B1  A$main$17 |    000007B1  C$sprites
     000007B1  XG$transl |    000007B2  A$main$17 |    000007B2  C$sprites
     000007B2  G$transla |    000007B2  _translat |    000007B3  A$main$17
     000007B4  A$main$17 |    000007B7  A$main$17 |    000007B7  C$sprites
     000007B9  A$main$17 |    000007BA  A$main$17 |    000007BB  A$main$17
     000007BC  A$main$17 |    000007BF  A$main$17 |    000007C0  A$main$17
     000007C1  A$main$17 |    000007C2  A$main$17 |    000007C3  A$main$18
     000007C3  C$sprites |    000007C4  A$main$18 |    000007C5  A$main$18
     000007C7  A$main$18 |    000007C8  A$main$18 |    000007CA  A$main$18
     000007CC  A$main$18 |    000007CE  A$main$18 |    000007D1  A$main$18
     000007D3  A$main$18 |    000007D6  A$main$18 |    000007D9  A$main$18
     000007D9  C$sprites |    000007DA  A$main$18 |    000007DB  A$main$18
     000007DC  A$main$18 |    000007DD  A$main$18 |    000007DE  A$main$18
     000007DF  A$main$18 |    000007E0  A$main$18 |    000007E1  A$main$18
     000007E3  A$main$18 |    000007E4  A$main$18 |    000007E5  A$main$18
     000007E8  A$main$18 |    000007E9  A$main$18 |    000007EA  A$main$18
     000007EB  A$main$18 |    000007EC  A$main$18 |    000007ED  A$main$18
     000007F0  A$main$18 |    000007F1  A$main$18 |    000007F2  A$main$18
     000007F3  A$main$18 |    000007F4  A$main$18 |    000007F5  A$main$18
     000007F7  A$main$18 |    000007F8  A$main$18 |    000007F9  A$main$18
     000007FC  A$main$18 |    000007FD  A$main$18 |    000007FE  A$main$18
     000007FF  A$main$18 |    00000800  A$main$18 |    00000801  A$main$18
     00000804  A$main$18 |    00000805  A$main$18 |    00000806  A$main$18
     00000807  A$main$18 |    00000808  A$main$18 |    00000809  A$main$18
     0000080B  A$main$18 |    0000080C  A$main$18 |    0000080D  A$main$18
     00000810  A$main$18 |    00000811  A$main$18 |    00000812  A$main$18
     00000813  A$main$18 |    00000814  A$main$18 |    00000815  A$main$18
     00000818  A$main$18 |    00000819  A$main$18 |    0000081A  A$main$19
     0000081B  A$main$19 |    0000081C  A$main$19 |    0000081D  A$main$19
     0000081E  A$main$19 |    00000820  A$main$19 |    00000821  A$main$19
     00000822  A$main$19 |    00000825  A$main$19 |    00000826  A$main$19
     00000827  A$main$19 |    00000828  A$main$19 |    00000829  A$main$19
     0000082A  A$main$19 |    0000082A  C$sprites |    0000082D  A$main$19
     0000082D  C$sprites |    0000082E  A$main$19 |    0000082F  A$main$19
     00000830  A$main$19 |    00000831  A$main$19 |    00000832  A$main$19
     00000833  A$main$19 |    00000834  A$main$19 |    00000835  A$main$19
     00000837  A$main$19 |    00000838  A$main$19 |    00000839  A$main$19
ASxxxx Linker V03.00 + NoICE + sdld,  page 12.
Hexadecimal  [32-Bits]

Area                       Addr        Size        Decimal Bytes (Attributes)
--------------------       ----        ----        ------- ----- ------------
_CODE                  00000200    00000D6B =        3435. bytes (REL,CON)

        Value  Global            Value  Global            Value  Global    
        -----  ------            -----  ------            -----  ------    
     0000083A  A$main$19 |    0000083D  A$main$19 |    0000083E  A$main$19
     0000083F  A$main$19 |    00000840  A$main$19 |    00000841  A$main$19
     00000842  A$main$19 |    00000845  A$main$19 |    00000846  A$main$19
     00000847  A$main$19 |    00000848  A$main$19 |    00000849  A$main$19
     0000084A  A$main$19 |    0000084C  A$main$19 |    0000084D  A$main$19
     0000084E  A$main$19 |    0000084F  A$main$19 |    00000852  A$main$19
     00000853  A$main$19 |    00000854  A$main$19 |    00000855  A$main$19
     00000856  A$main$19 |    00000857  A$main$19 |    0000085A  A$main$19
     0000085B  A$main$19 |    0000085C  A$main$19 |    0000085D  A$main$19
     0000085E  A$main$19 |    0000085F  A$main$19 |    00000861  A$main$19
     00000862  A$main$19 |    00000863  A$main$19 |    00000864  A$main$19
     00000867  A$main$19 |    00000868  A$main$19 |    00000869  A$main$19
     0000086A  A$main$20 |    0000086B  A$main$20 |    0000086C  A$main$20
     0000086F  A$main$20 |    00000870  A$main$20 |    00000871  A$main$20
     00000872  A$main$20 |    00000873  A$main$20 |    00000874  A$main$20
     00000876  A$main$20 |    00000877  A$main$20 |    00000878  A$main$20
     00000879  A$main$20 |    0000087C  A$main$20 |    0000087D  A$main$20
     0000087E  A$main$20 |    0000087F  A$main$20 |    00000880  A$main$20
     00000881  A$main$20 |    00000881  C$sprites |    00000884  A$main$20
     00000884  C$sprites |    00000885  A$main$20 |    00000886  A$main$20
     00000887  A$main$20 |    00000888  A$main$20 |    00000889  A$main$20
     0000088A  A$main$20 |    0000088B  A$main$20 |    0000088C  A$main$20
     0000088E  A$main$20 |    0000088F  A$main$20 |    00000890  A$main$20
     00000891  A$main$20 |    00000894  A$main$20 |    00000895  A$main$20
     00000896  A$main$20 |    00000897  A$main$20 |    00000898  A$main$20
     00000899  A$main$20 |    0000089A  A$main$20 |    0000089D  A$main$20
     0000089E  A$main$20 |    0000089F  A$main$20 |    000008A0  A$main$20
     000008A1  A$main$20 |    000008A2  A$main$20 |    000008A4  A$main$20
     000008A5  A$main$20 |    000008A6  A$main$20 |    000008A7  A$main$20
     000008AA  A$main$20 |    000008AB  A$main$20 |    000008AC  A$main$20
     000008AD  A$main$20 |    000008AE  A$main$20 |    000008AF  A$main$20
     000008B0  A$main$20 |    000008B3  A$main$20 |    000008B4  A$main$20
     000008B5  A$main$20 |    000008B6  A$main$20 |    000008B7  A$main$20
     000008B8  A$main$20 |    000008BA  A$main$20 |    000008BB  A$main$21
     000008BC  A$main$21 |    000008BD  A$main$21 |    000008C0  A$main$21
     000008C1  A$main$21 |    000008C2  A$main$21 |    000008C3  A$main$21
     000008C4  A$main$21 |    000008C5  A$main$21 |    000008C6  A$main$21
     000008C9  A$main$21 |    000008CA  A$main$21 |    000008CB  A$main$21
     000008CC  A$main$21 |    000008CD  A$main$21 |    000008CE  A$main$21
     000008D0  A$main$21 |    000008D1  A$main$21 |    000008D2  A$main$21
     000008D3  A$main$21 |    000008D6  A$main$21 |    000008D7  A$main$21
     000008D8  A$main$21 |    000008D9  A$main$21 |    000008DA  A$main$21
     000008DB  A$main$21 |    000008DC  A$main$21 |    000008DC  C$sprites
     000008DE  A$main$21 |    000008DE  C$sprites |    000008DF  A$main$21
     000008E0  A$main$21 |    000008E1  A$main$21 |    000008E2  A$main$21
     000008E3  A$main$21 |    000008E4  A$main$21 |    000008E5  A$main$21
     000008E6  A$main$21 |    000008E8  A$main$21 |    000008E9  A$main$21
     000008EA  A$main$21 |    000008EB  A$main$21 |    000008EE  A$main$21
     000008EF  A$main$21 |    000008F0  A$main$21 |    000008F1  A$main$21
     000008F2  A$main$21 |    000008F3  A$main$21 |    000008F4  A$main$21
     000008F7  A$main$21 |    000008F8  A$main$21 |    000008F9  A$main$21
ASxxxx Linker V03.00 + NoICE + sdld,  page 13.
Hexadecimal  [32-Bits]

Area                       Addr        Size        Decimal Bytes (Attributes)
--------------------       ----        ----        ------- ----- ------------
_CODE                  00000200    00000D6B =        3435. bytes (REL,CON)

        Value  Global            Value  Global            Value  Global    
        -----  ------            -----  ------            -----  ------    
     000008FA  A$main$21 |    000008FB  A$main$21 |    000008FC  A$main$21
     000008FE  A$main$21 |    000008FF  A$main$21 |    00000900  A$main$21
     00000901  A$main$21 |    00000904  A$main$21 |    00000905  A$main$21
     00000906  A$main$21 |    00000907  A$main$21 |    00000908  A$main$21
     00000909  A$main$21 |    0000090A  A$main$21 |    0000090D  A$main$21
     0000090E  A$main$21 |    0000090F  A$main$21 |    00000910  A$main$22
     00000911  A$main$22 |    00000912  A$main$22 |    00000914  A$main$22
     00000915  A$main$22 |    00000916  A$main$22 |    00000917  A$main$22
     0000091A  A$main$22 |    0000091B  A$main$22 |    0000091C  A$main$22
     0000091D  A$main$22 |    0000091E  A$main$22 |    0000091F  A$main$22
     00000920  A$main$22 |    00000923  A$main$22 |    00000924  A$main$22
     00000925  A$main$22 |    00000926  A$main$22 |    00000927  A$main$22
     00000928  A$main$22 |    0000092A  A$main$22 |    0000092B  A$main$22
     0000092C  A$main$22 |    0000092D  A$main$22 |    00000930  A$main$22
     00000931  A$main$22 |    00000932  A$main$22 |    00000933  A$main$22
     00000934  A$main$22 |    00000935  A$main$22 |    00000936  A$main$22
     00000936  C$sprites |    00000936  C$sprites |    00000938  A$main$22
     00000939  A$main$22 |    0000093A  A$main$22 |    0000093D  A$main$22
     0000093F  A$main$22 |    0000093F  C$sprites |    0000093F  XG$transl
     00000940  A$main$22 |    00000940  C$main.c$ |    00000940  C$main.c$
     00000940  C$main.c$ |    00000940  G$event_l |    00000940  _event_lo
     00000942  A$main$22 |    00000943  A$main$22 |    00000944  A$main$22
     00000945  A$main$22 |    00000946  A$main$22 |    00000949  A$main$22
     0000094A  A$main$22 |    0000094A  C$main.c$ |    0000094A  XG$event_
     0000094C  G$SmileTo |    0000094C  _SmileToS |    000009AC  G$testMet
     000009AC  _testMeta |    000009FC  G$Tomcat_ |    000009FC  _Tomcat_p
     00000A3C  A$main$25 |    00000A3C  C$main.c$ |    00000A3C  G$main$0$
     00000A3C  _main     |    00000A3E  A$main$25 |    00000A3E  C$main.c$
     00000A40  A$main$25 |    00000A41  A$main$25 |    00000A42  A$main$25
     00000A44  A$main$25 |    00000A45  A$main$25 |    00000A46  A$main$25
     00000A47  A$main$25 |    00000A47  C$main.c$ |    00000A49  A$main$25
     00000A4A  A$main$25 |    00000A4B  A$main$25 |    00000A4B  C$main.c$
     00000A4D  A$main$25 |    00000A4E  A$main$25 |    00000A4F  A$main$25
     00000A51  A$main$25 |    00000A52  A$main$25 |    00000A53  A$main$25
     00000A54  A$main$25 |    00000A54  C$main.c$ |    00000A56  A$main$25
     00000A57  A$main$25 |    00000A58  A$main$25 |    00000A5A  A$main$25
     00000A5B  A$main$25 |    00000A5C  A$main$25 |    00000A5D  A$main$25
     00000A5D  C$main.c$ |    00000A5F  A$main$25 |    00000A60  A$main$25
     00000A61  A$main$25 |    00000A63  A$main$25 |    00000A64  A$main$25
     00000A65  A$main$25 |    00000A66  A$main$25 |    00000A66  C$main.c$
     00000A68  A$main$25 |    00000A69  A$main$26 |    00000A6A  A$main$26
     00000A6A  C$main.c$ |    00000A6B  A$main$26 |    00000A6C  A$main$26
     00000A6D  A$main$26 |    00000A6E  A$main$26 |    00000A6F  A$main$26
     00000A70  A$main$26 |    00000A73  A$main$26 |    00000A74  A$main$26
     00000A76  A$main$26 |    00000A77  A$main$26 |    00000A78  A$main$26
     00000A7B  A$main$26 |    00000A7C  A$main$26 |    00000A7E  A$main$26
     00000A7F  A$main$26 |    00000A80  A$main$26 |    00000A81  A$main$26
     00000A82  A$main$26 |    00000A85  A$main$26 |    00000A87  A$main$26
     00000A88  A$main$26 |    00000A89  A$main$26 |    00000A89  C$main.c$
     00000A8A  A$main$26 |    00000A8B  A$main$26 |    00000A8D  A$main$26
     00000A8E  A$main$26 |    00000A8F  A$main$26 |    00000A90  A$main$26
ASxxxx Linker V03.00 + NoICE + sdld,  page 14.
Hexadecimal  [32-Bits]

Area                       Addr        Size        Decimal Bytes (Attributes)
--------------------       ----        ----        ------- ----- ------------
_CODE                  00000200    00000D6B =        3435. bytes (REL,CON)

        Value  Global            Value  Global            Value  Global    
        -----  ------            -----  ------            -----  ------    
     00000A91  A$main$26 |    00000A93  A$main$26 |    00000A94  A$main$26
     00000A95  A$main$26 |    00000A96  A$main$26 |    00000A97  A$main$26
     00000A99  A$main$26 |    00000A9A  A$main$26 |    00000A9B  A$main$26
     00000A9C  A$main$26 |    00000A9D  A$main$26 |    00000AA0  A$main$26
     00000AA1  A$main$26 |    00000AA4  A$main$26 |    00000AA5  A$main$26
     00000AA6  A$main$26 |    00000AA7  A$main$26 |    00000AA8  A$main$26
     00000AA9  A$main$26 |    00000AAC  A$main$26 |    00000AAE  A$main$26
     00000AB1  A$main$26 |    00000AB2  A$main$26 |    00000AB5  A$main$26
     00000AB6  A$main$26 |    00000AB9  A$main$26 |    00000ABA  A$main$26
     00000ABC  A$main$26 |    00000ABD  A$main$26 |    00000ABE  A$main$26
     00000ABF  A$main$26 |    00000AC0  A$main$26 |    00000AC3  A$main$26
     00000AC5  A$main$26 |    00000AC6  A$main$26 |    00000AC6  C$main.c$
     00000AC7  A$main$26 |    00000ACA  A$main$26 |    00000ACB  A$main$26
     00000ACC  A$main$26 |    00000ACF  A$main$26 |    00000AD1  A$main$26
     00000AD4  A$main$26 |    00000AD5  A$main$26 |    00000AD7  A$main$26
     00000AD7  C$main.c$ |    00000AD7  XG$main$0 |    00000AD8  Fmain$__s
     00000AF0  _printf   |    00000BB3  ___printf |    00000F4A  _sprintf 
ASxxxx Linker V03.00 + NoICE + sdld,  page 15.
Hexadecimal  [32-Bits]

Area                       Addr        Size        Decimal Bytes (Attributes)
--------------------       ----        ----        ------- ----- ------------
_HEADER0               00000000    00000001 =           1. bytes (ABS,CON)

        Value  Global            Value  Global            Value  Global    
        -----  ------            -----  ------            -----  ------    
     00000020  .call_hl 
ASxxxx Linker V03.00 + NoICE + sdld,  page 16.
Hexadecimal  [32-Bits]

Area                       Addr        Size        Decimal Bytes (Attributes)
--------------------       ----        ----        ------- ----- ------------
_HEADER1               00000000    00000005 =           5. bytes (ABS,CON)

        Value  Global            Value  Global            Value  Global    
        -----  ------            -----  ------            -----  ------    
     00000028  .MemsetSm
ASxxxx Linker V03.00 + NoICE + sdld,  page 17.
Hexadecimal  [32-Bits]

Area                       Addr        Size        Decimal Bytes (Attributes)
--------------------       ----        ----        ------- ----- ------------
_HEADER2               00000000    00000007 =           7. bytes (ABS,CON)

        Value  Global            Value  Global            Value  Global    
        -----  ------            -----  ------            -----  ------    
     00000030  .MemcpySm
ASxxxx Linker V03.00 + NoICE + sdld,  page 18.
Hexadecimal  [32-Bits]

Area                       Addr        Size        Decimal Bytes (Attributes)
--------------------       ----        ----        ------- ----- ------------
_HEADER3               00000000    00000008 =           8. bytes (ABS,CON)

        Value  Global            Value  Global            Value  Global    
        -----  ------            -----  ------            -----  ------    
ASxxxx Linker V03.00 + NoICE + sdld,  page 19.
Hexadecimal  [32-Bits]

Area                       Addr        Size        Decimal Bytes (Attributes)
--------------------       ----        ----        ------- ----- ------------
_HEADER4               00000000    0000004E =          78. bytes (ABS,CON)

        Value  Global            Value  Global            Value  Global    
        -----  ------            -----  ------            -----  ------    
     00000080  .int      |    0000008F  _wait_int |    0000009C  __standar
     000000AC  _refresh_
ASxxxx Linker V03.00 + NoICE + sdld,  page 20.
Hexadecimal  [32-Bits]

Area                       Addr        Size        Decimal Bytes (Attributes)
--------------------       ----        ----        ------- ----- ------------
_HEADER5               00000000    00000002 =           2. bytes (ABS,CON)

        Value  Global            Value  Global            Value  Global    
        -----  ------            -----  ------            -----  ------    
ASxxxx Linker V03.00 + NoICE + sdld,  page 21.
Hexadecimal  [32-Bits]

Area                       Addr        Size        Decimal Bytes (Attributes)
--------------------       ----        ----        ------- ----- ------------
_HEADER6               00000000    00000030 =          48. bytes (ABS,CON)

        Value  Global            Value  Global            Value  Global    
        -----  ------            -----  ------            -----  ------    
ASxxxx Linker V03.00 + NoICE + sdld,  page 22.
Hexadecimal  [32-Bits]

Area                       Addr        Size        Decimal Bytes (Attributes)
--------------------       ----        ----        ------- ----- ------------
_HEADER7               00000000    00000006 =           6. bytes (ABS,CON)

        Value  Global            Value  Global            Value  Global    
        -----  ------            -----  ------            -----  ------    
ASxxxx Linker V03.00 + NoICE + sdld,  page 23.
Hexadecimal  [32-Bits]

Area                       Addr        Size        Decimal Bytes (Attributes)
--------------------       ----        ----        ------- ----- ------------
_HEADER8               00000000    00000003 =           3. bytes (ABS,CON)

        Value  Global            Value  Global            Value  Global    
        -----  ------            -----  ------            -----  ------    
ASxxxx Linker V03.00 + NoICE + sdld,  page 24.
Hexadecimal  [32-Bits]

Area                       Addr        Size        Decimal Bytes (Attributes)
--------------------       ----        ----        ------- ----- ------------
_HEADER9               00000000    00000001 =           1. bytes (ABS,CON)

        Value  Global            Value  Global            Value  Global    
        -----  ------            -----  ------            -----  ------    
ASxxxx Linker V03.00 + NoICE + sdld,  page 25.
Hexadecimal  [32-Bits]

Area                       Addr        Size        Decimal Bytes (Attributes)
--------------------       ----        ----        ------- ----- ------------
_HEADERa               00000000    00000001 =           1. bytes (ABS,CON)

        Value  Global            Value  Global            Value  Global    
        -----  ------            -----  ------            -----  ------    
ASxxxx Linker V03.00 + NoICE + sdld,  page 26.
Hexadecimal  [32-Bits]

Area                       Addr        Size        Decimal Bytes (Attributes)
--------------------       ----        ----        ------- ----- ------------
_HEADERb               00000000    00000001 =           1. bytes (ABS,CON)

        Value  Global            Value  Global            Value  Global    
        -----  ------            -----  ------            -----  ------    
ASxxxx Linker V03.00 + NoICE + sdld,  page 27.
Hexadecimal  [32-Bits]

Area                       Addr        Size        Decimal Bytes (Attributes)
--------------------       ----        ----        ------- ----- ------------
_HEADERc               00000000    00000002 =           2. bytes (ABS,CON)

        Value  Global            Value  Global            Value  Global    
        -----  ------            -----  ------            -----  ------    
ASxxxx Linker V03.00 + NoICE + sdld,  page 28.
Hexadecimal  [32-Bits]

Area                       Addr        Size        Decimal Bytes (Attributes)
--------------------       ----        ----        ------- ----- ------------
_HEADERd               00000000    00000001 =           1. bytes (ABS,CON)

        Value  Global            Value  Global            Value  Global    
        -----  ------            -----  ------            -----  ------    
ASxxxx Linker V03.00 + NoICE + sdld,  page 29.
Hexadecimal  [32-Bits]

Area                       Addr        Size        Decimal Bytes (Attributes)
--------------------       ----        ----        ------- ----- ------------
_HEADERe               00000000    00000001 =           1. bytes (ABS,CON)

        Value  Global            Value  Global            Value  Global    
        -----  ------            -----  ------            -----  ------    
ASxxxx Linker V03.00 + NoICE + sdld,  page 30.
Hexadecimal  [32-Bits]

Area                       Addr        Size        Decimal Bytes (Attributes)
--------------------       ----        ----        ------- ----- ------------
_HEADERf               00000000    00000002 =           2. bytes (ABS,CON)

        Value  Global            Value  Global            Value  Global    
        -----  ------            -----  ------            -----  ------    
ASxxxx Linker V03.00 + NoICE + sdld,  page 31.
Hexadecimal  [32-Bits]

Area                       Addr        Size        Decimal Bytes (Attributes)
--------------------       ----        ----        ------- ----- ------------
_HEADER10              00000000    00000082 =         130. bytes (ABS,CON)

        Value  Global            Value  Global            Value  Global    
        -----  ------            -----  ------            -----  ------    
     00000150  .reset    |    00000150  _reset    |    00000157  .code_sta
     000001B7  _exit     |    000001BB  _set_inte
ASxxxx Linker V03.00 + NoICE + sdld,  page 32.
Hexadecimal  [32-Bits]

Area                       Addr        Size        Decimal Bytes (Attributes)
--------------------       ----        ----        ------- ----- ------------
_HEADER11              00000000    00000001 =           1. bytes (ABS,CON)

        Value  Global            Value  Global            Value  Global    
        -----  ------            -----  ------            -----  ------    
ASxxxx Linker V03.00 + NoICE + sdld,  page 33.
Hexadecimal  [32-Bits]

Area                       Addr        Size        Decimal Bytes (Attributes)
--------------------       ----        ----        ------- ----- ------------
_HOME                  00000F6B    00000A4F =        2639. bytes (REL,CON)

        Value  Global            Value  Global            Value  Global    
        -----  ------            -----  ------            -----  ------    
     00000F6B  .memset_s |    00000F74  .memcpy_s |    00000F91  .remove_V
     00000F94  .remove_i |    00000FB1  .add_VBL  |    00000FB4  .add_int 
     00000FBF  .wait_vbl |    00000FBF  _wait_vbl |    00000FCF  .display_
     00000FCF  _display_ |    00000FE7  _remove_V |    00000FF2  _add_VBL 
     00000FFD  _set_tile |    00001002  _set_bkg_ |    00001002  _set_win_
     0000100A  _set_spri |    0000103A  __mulsuch |    00001044  __mulusch
     0000104E  __mulscha |    00001060  __mulucha |    0000106C  __mulint 
     00001092  .padup    |    00001092  _waitpadu |    000010A2  .jpad    
     000010A2  _joypad   |    000010CA  _waitpad  |    000010CD  .wait_pad
     000010D4  _delay    |    000010D9  .delay    |    00001105  __divsuch
     00001112  __modsuch |    0000111C  __divusch |    0000112E  __modusch
     0000113E  __divscha |    0000114A  __modscha |    00001154  __divsint
     00001165  __modsint |    00001174  __divucha |    00001180  __moducha
     0000118A  __divuint |    0000119B  __moduint |    000011AA  .div8    
     000011AA  .mod8     |    000011B2  .div16    |    000011B2  .mod16   
     000011E8  .divu8    |    000011E8  .modu8    |    000011EB  .divu16  
     000011EB  .modu16   |    0000122C  _font_loa |    00001233  font_load
     0000127B  font_copy |    000012B1  font_set  |    000012BE  .put_char
     000012D6  .out_char |    000012DC  .del_char |    00001332  _putchar 
     0000133B  _setchar  |    00001344  _font_loa |    00001352  _font_set
     00001361  _font_ini |    00001380  .cls      |    00001380  _cls     
     000013A2  _gotoxy   |    000013AD  _posx     |    000013BE  _posy    
     000013E6  .cr_curs  |    000013FB  .adv_curs |    00001457  .tmode   
     00001480  .tmode_ou |    00001489  _color    |    00001489  _set_1bpp
     00001498  .drawing_ |    000014A3  .drawing_ |    000014DF  _add_LCD 
     000014EA  .add_LCD  |    000014F0  _remove_L |    000014FB  .remove_L
     00001501  _font_ibm |    000018B3  _uitoa    |    000018C2  _itoa    
     000018D1  .itoa     |    000018E5  .utoa     |    00001959  _set_bkg_
     00001959  _set_win_ |    00001961  _set_spri |    000019B9  ___sdcc_c
ASxxxx Linker V03.00 + NoICE + sdld,  page 34.
Hexadecimal  [32-Bits]

Area                       Addr        Size        Decimal Bytes (Attributes)
--------------------       ----        ----        ------- ----- ------------
_INITIALIZER           000019BA    00000005 =           5. bytes (REL,CON)

        Value  Global            Value  Global            Value  Global    
        -----  ------            -----  ------            -----  ------    
ASxxxx Linker V03.00 + NoICE + sdld,  page 35.
Hexadecimal  [32-Bits]

Area                       Addr        Size        Decimal Bytes (Attributes)
--------------------       ----        ----        ------- ----- ------------
_GSINIT                000019BF    0000000C =          12. bytes (REL,CON)

        Value  Global            Value  Global            Value  Global    
        -----  ------            -----  ------            -----  ------    
     000019BF  gsinit   
ASxxxx Linker V03.00 + NoICE + sdld,  page 36.
Hexadecimal  [32-Bits]

Area                       Addr        Size        Decimal Bytes (Attributes)
--------------------       ----        ----        ------- ----- ------------
_GSFINAL               000019CB    00000001 =           1. bytes (REL,CON)

        Value  Global            Value  Global            Value  Global    
        -----  ------            -----  ------            -----  ------    
ASxxxx Linker V03.00 + NoICE + sdld,  page 37.
Hexadecimal  [32-Bits]

Area                       Addr        Size        Decimal Bytes (Attributes)
--------------------       ----        ----        ------- ----- ------------
_DATA                  0000C0A0    0000003F =          63. bytes (REL,CON)

        Value  Global            Value  Global            Value  Global    
        -----  ------            -----  ------            -----  ------    
     0000C0A0  __cpu     |    0000C0A1  __is_GBA  |    0000C0A2  .mode    
     0000C0A3  .sys_time |    0000C0A3  _sys_time |    0000C0A5  .int_0x40
     0000C0B9  font_curr |    0000C0BC  font_firs |    0000C0BD  font_tabl
     0000C0CF  .int_0x48
ASxxxx Linker V03.00 + NoICE + sdld,  page 38.
Hexadecimal  [32-Bits]

Area                       Addr        Size        Decimal Bytes (Attributes)
--------------------       ----        ----        ------- ----- ------------
_INITIALIZED           0000C0DF    00000005 =           5. bytes (REL,CON)

        Value  Global            Value  Global            Value  Global    
        -----  ------            -----  ------            -----  ------    
     0000C0DF  .curx     |    0000C0E0  .cury     |    0000C0E1  .fg_colou
     0000C0E1  __current |    0000C0E2  .bg_colou |    0000C0E3  .draw_mod
ASxxxx Linker V03.00 + NoICE + sdld,  page 39.
Hexadecimal  [32-Bits]

Area                       Addr        Size        Decimal Bytes (Attributes)
--------------------       ----        ----        ------- ----- ------------
_HRAM12                00000000    00000003 =           3. bytes (ABS,CON)

        Value  Global            Value  Global            Value  Global    
        -----  ------            -----  ------            -----  ------    
     0000FF90  __current |    0000FF92  __shadow_
ASxxxx Linker V03.00 + NoICE + sdld,  page 40.
Hexadecimal  [32-Bits]

Area                       Addr        Size        Decimal Bytes (Attributes)
--------------------       ----        ----        ------- ----- ------------
_FONT_HEADER0          00000000    00000003 =           3. bytes (ABS,CON)

        Value  Global            Value  Global            Value  Global    
        -----  ------            -----  ------            -----  ------    
ASxxxx Linker V03.00 + NoICE + sdld,  page 41.
Hexadecimal  [32-Bits]

Area                       Addr        Size        Decimal Bytes (Attributes)
--------------------       ----        ----        ------- ----- ------------
_HEADER_LCD0           00000000    00000003 =           3. bytes (ABS,CON)

        Value  Global            Value  Global            Value  Global    
        -----  ------            -----  ------            -----  ------    
ASxxxx Linker V03.00 + NoICE + sdld,  page 42.

Files Linked                              [ module(s) ]

c:\gbdk\lib/small/asxxxx/gb/crt0.o        [ Runtime ]
test_builds\buildfiles\main.o             [ main ]


Libraries Linked                          [ object file ]

c:\gbdk\lib/small/asxxxx/gb/gb.lib        [ set_data.o ]
c:\gbdk\lib/small/asxxxx/gbz80/gbz80.lib  [ mul.o ]
c:\gbdk\lib/small/asxxxx/gb/gb.lib        [ pad.o ]
c:\gbdk\lib/small/asxxxx/gb/gb.lib        [ delay.o ]
c:\gbdk\lib/small/asxxxx/gbz80/gbz80.lib  [ printf.o ]
c:\gbdk\lib/small/asxxxx/gb/gb.lib        [ sfr.o ]
c:\gbdk\lib/small/asxxxx/gbz80/gbz80.lib  [ div.o ]
c:\gbdk\lib/small/asxxxx/gb/gb.lib        [ font.o ]
c:\gbdk\lib/small/asxxxx/gb/gb.lib        [ color.o ]
c:\gbdk\lib/small/asxxxx/gb/gb.lib        [ drawing_isr.o ]
c:\gbdk\lib/small/asxxxx/gb/gb.lib        [ lcd.o ]
c:\gbdk\lib/small/asxxxx/gb/gb.lib        [ f_ibm_sh.o ]
c:\gbdk\lib/small/asxxxx/gbz80/gbz80.lib  [ sprintf.o ]
c:\gbdk\lib/small/asxxxx/gbz80/gbz80.lib  [ itoa.o ]
c:\gbdk\lib/small/asxxxx/gb/gb.lib        [ set_1bit_data.o ]
c:\gbdk\lib/small/asxxxx/gbz80/gbz80.lib  [ __sdcc_call_hl.o ]

ASxxxx Linker V03.00 + NoICE + sdld,  page 43.

User Base Address Definitions

_DATA=0xC0A0
_CODE=0x0200
ASxxxx Linker V03.00 + NoICE + sdld,  page 44.

User Global Definitions

_shadow_OAM=0xC000
.STACK=0xE000
.refresh_OAM=0xFF80

