                                      1 ;--------------------------------------------------------
                                      2 ; File Created by SDCC : free open source ANSI-C Compiler
                                      3 ; Version 4.1.6 #12539 (MINGW32)
                                      4 ;--------------------------------------------------------
                                      5 	.module Sprite_Engine
                                      6 	.optsdcc -mgbz80
                                      7 	
                                      8 ;--------------------------------------------------------
                                      9 ; Public variables in this module
                                     10 ;--------------------------------------------------------
                                     11 	.globl _animate_sprite
                                     12 	.globl _cpu_wait
                                     13 	.globl _set_sprite_data
                                     14 	.globl _wait_vbl_done
                                     15 	.globl _joypad
                                     16 	.globl _delay
                                     17 	.globl _init_sprite
                                     18 	.globl _init_sprite_old
                                     19 	.globl _init_16x16_meta
                                     20 	.globl _init_16x16_meta_old
                                     21 	.globl _set_sprite_position
                                     22 	.globl _set_sprite_velocity
                                     23 	.globl _set_sprite_visibility
                                     24 	.globl _set_sprite_hitbox
                                     25 	.globl _set_16x16_meta_position
                                     26 	.globl _set_16x16_meta_velocity
                                     27 	.globl _set_16x16_meta_visibility
                                     28 	.globl _set_16x16_meta_hitbox
                                     29 	.globl _setup_sprite
                                     30 	.globl _setup_16x16_meta
                                     31 	.globl _change_sprite_tile
                                     32 	.globl _translate_sprite
                                     33 	.globl _translate_16x16_meta
                                     34 ;--------------------------------------------------------
                                     35 ; special function registers
                                     36 ;--------------------------------------------------------
                                     37 ;--------------------------------------------------------
                                     38 ; ram data
                                     39 ;--------------------------------------------------------
                                     40 	.area _DATA
                                     41 ;--------------------------------------------------------
                                     42 ; ram data
                                     43 ;--------------------------------------------------------
                                     44 	.area _INITIALIZED
                                     45 ;--------------------------------------------------------
                                     46 ; absolute external ram data
                                     47 ;--------------------------------------------------------
                                     48 	.area _DABS (ABS)
                                     49 ;--------------------------------------------------------
                                     50 ; global & static initialisations
                                     51 ;--------------------------------------------------------
                                     52 	.area _HOME
                                     53 	.area _GSINIT
                                     54 	.area _GSFINAL
                                     55 	.area _GSINIT
                                     56 ;--------------------------------------------------------
                                     57 ; Home
                                     58 ;--------------------------------------------------------
                                     59 	.area _HOME
                                     60 	.area _HOME
                                     61 ;--------------------------------------------------------
                                     62 ; code
                                     63 ;--------------------------------------------------------
                                     64 	.area _CODE
                           000000    65 	G$init_sprite$0$0	= .
                                     66 	.globl	G$init_sprite$0$0
                           000000    67 	C$Sprite_Engine.c$33$0_0$124	= .
                                     68 	.globl	C$Sprite_Engine.c$33$0_0$124
                                     69 ;src/engine/Sprite_Engine.c:33: void init_sprite(Sprite* sprite, UINT8 id, UINT8 init_tile, UINT8 max_tile)
                                     70 ;	---------------------------------
                                     71 ; Function init_sprite
                                     72 ; ---------------------------------
      000000                         73 _init_sprite::
                           000000    74 	C$Sprite_Engine.c$35$1_0$124	= .
                                     75 	.globl	C$Sprite_Engine.c$35$1_0$124
                                     76 ;src/engine/Sprite_Engine.c:35: sprite->id = id;
      000000 F8 02                   77 	ldhl	sp,	#2
      000002 2A                      78 	ld	a, (hl+)
      000003 4F                      79 	ld	c, a
      000004 2A                      80 	ld	a, (hl+)
      000005 47                      81 	ld	b, a
                           000006    82 	C$Sprite_Engine.c$36$1_0$124	= .
                                     83 	.globl	C$Sprite_Engine.c$36$1_0$124
                                     84 ;src/engine/Sprite_Engine.c:36: sprite->init_tile = init_tile;
      000006 2A                      85 	ld	a, (hl+)
      000007 02                      86 	ld	(bc), a
      000008 59                      87 	ld	e, c
      000009 50                      88 	ld	d, b
      00000A 13                      89 	inc	de
                           00000B    90 	C$Sprite_Engine.c$37$1_0$124	= .
                                     91 	.globl	C$Sprite_Engine.c$37$1_0$124
                                     92 ;src/engine/Sprite_Engine.c:37: sprite->max_tile = max_tile;
      00000B 2A                      93 	ld	a, (hl+)
      00000C 12                      94 	ld	(de), a
      00000D 03                      95 	inc	bc
      00000E 03                      96 	inc	bc
      00000F 7E                      97 	ld	a, (hl)
      000010 02                      98 	ld	(bc), a
                           000011    99 	C$Sprite_Engine.c$38$1_0$124	= .
                                    100 	.globl	C$Sprite_Engine.c$38$1_0$124
                                    101 ;src/engine/Sprite_Engine.c:38: }
                           000011   102 	C$Sprite_Engine.c$38$1_0$124	= .
                                    103 	.globl	C$Sprite_Engine.c$38$1_0$124
                           000011   104 	XG$init_sprite$0$0	= .
                                    105 	.globl	XG$init_sprite$0$0
      000011 C9                     106 	ret
                           000012   107 	G$init_sprite_old$0$0	= .
                                    108 	.globl	G$init_sprite_old$0$0
                           000012   109 	C$Sprite_Engine.c$40$1_0$126	= .
                                    110 	.globl	C$Sprite_Engine.c$40$1_0$126
                                    111 ;src/engine/Sprite_Engine.c:40: void init_sprite_old(Sprite* sprite, uint8_t id, uint8_t init_tile, uint8_t max_tile, uint8_t x, uint8_t y, uint8_t velocity) {
                                    112 ;	---------------------------------
                                    113 ; Function init_sprite_old
                                    114 ; ---------------------------------
      000012                        115 _init_sprite_old::
                           000012   116 	C$Sprite_Engine.c$41$1_0$126	= .
                                    117 	.globl	C$Sprite_Engine.c$41$1_0$126
                                    118 ;src/engine/Sprite_Engine.c:41: sprite->id = id;
      000012 F8 02                  119 	ldhl	sp,	#2
      000014 2A                     120 	ld	a, (hl+)
      000015 4F                     121 	ld	c, a
      000016 2A                     122 	ld	a, (hl+)
      000017 47                     123 	ld	b, a
                           000018   124 	C$Sprite_Engine.c$42$1_0$126	= .
                                    125 	.globl	C$Sprite_Engine.c$42$1_0$126
                                    126 ;src/engine/Sprite_Engine.c:42: sprite->init_tile = init_tile;
      000018 2A                     127 	ld	a, (hl+)
      000019 02                     128 	ld	(bc), a
      00001A 59                     129 	ld	e, c
      00001B 50                     130 	ld	d, b
      00001C 13                     131 	inc	de
                           00001D   132 	C$Sprite_Engine.c$43$1_0$126	= .
                                    133 	.globl	C$Sprite_Engine.c$43$1_0$126
                                    134 ;src/engine/Sprite_Engine.c:43: sprite->max_tile = max_tile;
      00001D 2A                     135 	ld	a, (hl+)
      00001E 12                     136 	ld	(de), a
      00001F 59                     137 	ld	e, c
      000020 50                     138 	ld	d, b
      000021 13                     139 	inc	de
      000022 13                     140 	inc	de
                           000023   141 	C$Sprite_Engine.c$44$1_0$126	= .
                                    142 	.globl	C$Sprite_Engine.c$44$1_0$126
                                    143 ;src/engine/Sprite_Engine.c:44: sprite->x = x;
      000023 2A                     144 	ld	a, (hl+)
      000024 12                     145 	ld	(de), a
      000025 59                     146 	ld	e, c
      000026 50                     147 	ld	d, b
      000027 13                     148 	inc	de
      000028 13                     149 	inc	de
      000029 13                     150 	inc	de
      00002A 7E                     151 	ld	a, (hl)
      00002B 12                     152 	ld	(de), a
                           00002C   153 	C$Sprite_Engine.c$45$1_0$126	= .
                                    154 	.globl	C$Sprite_Engine.c$45$1_0$126
                                    155 ;src/engine/Sprite_Engine.c:45: sprite->y = y;
      00002C 21 04 00               156 	ld	hl, #0x0004
      00002F 09                     157 	add	hl, bc
      000030 5D                     158 	ld	e, l
      000031 54                     159 	ld	d, h
      000032 F8 08                  160 	ldhl	sp,	#8
                           000034   161 	C$Sprite_Engine.c$46$1_0$126	= .
                                    162 	.globl	C$Sprite_Engine.c$46$1_0$126
                                    163 ;src/engine/Sprite_Engine.c:46: sprite->velocity = velocity;
      000034 2A                     164 	ld	a, (hl+)
      000035 12                     165 	ld	(de), a
      000036 03                     166 	inc	bc
      000037 03                     167 	inc	bc
      000038 03                     168 	inc	bc
      000039 03                     169 	inc	bc
      00003A 03                     170 	inc	bc
      00003B 7E                     171 	ld	a, (hl)
      00003C 02                     172 	ld	(bc), a
                           00003D   173 	C$Sprite_Engine.c$47$1_0$126	= .
                                    174 	.globl	C$Sprite_Engine.c$47$1_0$126
                                    175 ;src/engine/Sprite_Engine.c:47: }
                           00003D   176 	C$Sprite_Engine.c$47$1_0$126	= .
                                    177 	.globl	C$Sprite_Engine.c$47$1_0$126
                           00003D   178 	XG$init_sprite_old$0$0	= .
                                    179 	.globl	XG$init_sprite_old$0$0
      00003D C9                     180 	ret
                           00003E   181 	G$init_16x16_meta$0$0	= .
                                    182 	.globl	G$init_16x16_meta$0$0
                           00003E   183 	C$Sprite_Engine.c$49$1_0$128	= .
                                    184 	.globl	C$Sprite_Engine.c$49$1_0$128
                                    185 ;src/engine/Sprite_Engine.c:49: void init_16x16_meta(MetaSprite16x16* meta, UINT8 meta_id, UINT8 init_tile, UINT8 max_tile, UINT8 texture_idx,
                                    186 ;	---------------------------------
                                    187 ; Function init_16x16_meta
                                    188 ; ---------------------------------
      00003E                        189 _init_16x16_meta::
      00003E E8 F0                  190 	add	sp, #-16
                           000040   191 	C$Sprite_Engine.c$52$1_0$128	= .
                                    192 	.globl	C$Sprite_Engine.c$52$1_0$128
                                    193 ;src/engine/Sprite_Engine.c:52: meta->meta_id = meta_id;
      000040 F8 12                  194 	ldhl	sp,	#18
      000042 7E                     195 	ld	a, (hl)
      000043 F8 00                  196 	ldhl	sp,	#0
      000045 77                     197 	ld	(hl), a
      000046 F8 13                  198 	ldhl	sp,	#19
      000048 7E                     199 	ld	a, (hl)
      000049 F8 01                  200 	ldhl	sp,	#1
      00004B 77                     201 	ld	(hl), a
      00004C D1                     202 	pop	de
      00004D D5                     203 	push	de
      00004E F8 14                  204 	ldhl	sp,	#20
                           000050   205 	C$Sprite_Engine.c$53$1_0$128	= .
                                    206 	.globl	C$Sprite_Engine.c$53$1_0$128
                                    207 ;src/engine/Sprite_Engine.c:53: meta->init_tile = init_tile;
      000050 2A                     208 	ld	a, (hl+)
      000051 12                     209 	ld	(de), a
      000052 C1                     210 	pop	bc
      000053 C5                     211 	push	bc
      000054 03                     212 	inc	bc
                           000055   213 	C$Sprite_Engine.c$54$1_0$128	= .
                                    214 	.globl	C$Sprite_Engine.c$54$1_0$128
                                    215 ;src/engine/Sprite_Engine.c:54: meta->max_tile = max_tile;
      000055 2A                     216 	ld	a, (hl+)
      000056 02                     217 	ld	(bc), a
      000057 C1                     218 	pop	bc
      000058 C5                     219 	push	bc
      000059 03                     220 	inc	bc
      00005A 03                     221 	inc	bc
                           00005B   222 	C$Sprite_Engine.c$55$1_0$128	= .
                                    223 	.globl	C$Sprite_Engine.c$55$1_0$128
                                    224 ;src/engine/Sprite_Engine.c:55: meta->texture_idx = texture_idx;
      00005B 2A                     225 	ld	a, (hl+)
      00005C 02                     226 	ld	(bc), a
      00005D C1                     227 	pop	bc
      00005E C5                     228 	push	bc
      00005F 03                     229 	inc	bc
      000060 03                     230 	inc	bc
      000061 03                     231 	inc	bc
      000062 7E                     232 	ld	a, (hl)
      000063 02                     233 	ld	(bc), a
                           000064   234 	C$Sprite_Engine.c$58$1_0$128	= .
                                    235 	.globl	C$Sprite_Engine.c$58$1_0$128
                                    236 ;src/engine/Sprite_Engine.c:58: meta->tile0 = tile0;
      000064 D1                     237 	pop	de
      000065 D5                     238 	push	de
      000066 21 09 00               239 	ld	hl, #0x0009
      000069 19                     240 	add	hl, de
      00006A E5                     241 	push	hl
      00006B 7D                     242 	ld	a, l
      00006C F8 04                  243 	ldhl	sp,	#4
      00006E 77                     244 	ld	(hl), a
      00006F E1                     245 	pop	hl
      000070 7C                     246 	ld	a, h
      000071 F8 03                  247 	ldhl	sp,	#3
      000073 32                     248 	ld	(hl-), a
      000074 2A                     249 	ld	a, (hl+)
      000075 5F                     250 	ld	e, a
      000076 56                     251 	ld	d, (hl)
      000077 F8 18                  252 	ldhl	sp,	#24
      000079 2A                     253 	ld	a, (hl+)
      00007A 12                     254 	ld	(de), a
      00007B 13                     255 	inc	de
      00007C 7E                     256 	ld	a, (hl)
      00007D 12                     257 	ld	(de), a
                           00007E   258 	C$Sprite_Engine.c$59$1_0$128	= .
                                    259 	.globl	C$Sprite_Engine.c$59$1_0$128
                                    260 ;src/engine/Sprite_Engine.c:59: meta->tile1 = tile1;
      00007E D1                     261 	pop	de
      00007F D5                     262 	push	de
      000080 21 0B 00               263 	ld	hl, #0x000b
      000083 19                     264 	add	hl, de
      000084 E5                     265 	push	hl
      000085 7D                     266 	ld	a, l
      000086 F8 06                  267 	ldhl	sp,	#6
      000088 77                     268 	ld	(hl), a
      000089 E1                     269 	pop	hl
      00008A 7C                     270 	ld	a, h
      00008B F8 05                  271 	ldhl	sp,	#5
      00008D 32                     272 	ld	(hl-), a
      00008E 2A                     273 	ld	a, (hl+)
      00008F 5F                     274 	ld	e, a
      000090 56                     275 	ld	d, (hl)
      000091 F8 1A                  276 	ldhl	sp,	#26
      000093 2A                     277 	ld	a, (hl+)
      000094 12                     278 	ld	(de), a
      000095 13                     279 	inc	de
      000096 7E                     280 	ld	a, (hl)
      000097 12                     281 	ld	(de), a
                           000098   282 	C$Sprite_Engine.c$60$1_0$128	= .
                                    283 	.globl	C$Sprite_Engine.c$60$1_0$128
                                    284 ;src/engine/Sprite_Engine.c:60: meta->tile2 = tile2;
      000098 D1                     285 	pop	de
      000099 D5                     286 	push	de
      00009A 21 0D 00               287 	ld	hl, #0x000d
      00009D 19                     288 	add	hl, de
      00009E E5                     289 	push	hl
      00009F 7D                     290 	ld	a, l
      0000A0 F8 08                  291 	ldhl	sp,	#8
      0000A2 77                     292 	ld	(hl), a
      0000A3 E1                     293 	pop	hl
      0000A4 7C                     294 	ld	a, h
      0000A5 F8 07                  295 	ldhl	sp,	#7
      0000A7 32                     296 	ld	(hl-), a
      0000A8 2A                     297 	ld	a, (hl+)
      0000A9 5F                     298 	ld	e, a
      0000AA 56                     299 	ld	d, (hl)
      0000AB F8 1C                  300 	ldhl	sp,	#28
      0000AD 2A                     301 	ld	a, (hl+)
      0000AE 12                     302 	ld	(de), a
      0000AF 13                     303 	inc	de
      0000B0 7E                     304 	ld	a, (hl)
      0000B1 12                     305 	ld	(de), a
                           0000B2   306 	C$Sprite_Engine.c$61$1_0$128	= .
                                    307 	.globl	C$Sprite_Engine.c$61$1_0$128
                                    308 ;src/engine/Sprite_Engine.c:61: meta->tile3 = tile3;
      0000B2 D1                     309 	pop	de
      0000B3 D5                     310 	push	de
      0000B4 21 0F 00               311 	ld	hl, #0x000f
      0000B7 19                     312 	add	hl, de
      0000B8 E5                     313 	push	hl
      0000B9 7D                     314 	ld	a, l
      0000BA F8 0A                  315 	ldhl	sp,	#10
      0000BC 77                     316 	ld	(hl), a
      0000BD E1                     317 	pop	hl
      0000BE 7C                     318 	ld	a, h
      0000BF F8 09                  319 	ldhl	sp,	#9
      0000C1 32                     320 	ld	(hl-), a
      0000C2 2A                     321 	ld	a, (hl+)
      0000C3 5F                     322 	ld	e, a
      0000C4 56                     323 	ld	d, (hl)
      0000C5 F8 1E                  324 	ldhl	sp,	#30
      0000C7 2A                     325 	ld	a, (hl+)
      0000C8 12                     326 	ld	(de), a
      0000C9 13                     327 	inc	de
      0000CA 7E                     328 	ld	a, (hl)
      0000CB 12                     329 	ld	(de), a
                           0000CC   330 	C$Sprite_Engine.c$64$1_0$128	= .
                                    331 	.globl	C$Sprite_Engine.c$64$1_0$128
                                    332 ;src/engine/Sprite_Engine.c:64: meta->tile0->id = meta->meta_id;
      0000CC F8 18                  333 	ldhl	sp,	#24
      0000CE 2A                     334 	ld	a, (hl+)
      0000CF 4F                     335 	ld	c, a
      0000D0 46                     336 	ld	b, (hl)
      0000D1 F8 14                  337 	ldhl	sp,	#20
      0000D3 7E                     338 	ld	a, (hl)
      0000D4 02                     339 	ld	(bc), a
                           0000D5   340 	C$Sprite_Engine.c$65$1_0$128	= .
                                    341 	.globl	C$Sprite_Engine.c$65$1_0$128
                                    342 ;src/engine/Sprite_Engine.c:65: meta->tile1->id = meta->meta_id + 1;
      0000D5 F8 1A                  343 	ldhl	sp,	#26
      0000D7 2A                     344 	ld	a, (hl+)
      0000D8 4F                     345 	ld	c, a
      0000D9 46                     346 	ld	b, (hl)
      0000DA F8 14                  347 	ldhl	sp,	#20
      0000DC 5E                     348 	ld	e, (hl)
      0000DD 7B                     349 	ld	a, e
      0000DE 3C                     350 	inc	a
      0000DF 02                     351 	ld	(bc), a
                           0000E0   352 	C$Sprite_Engine.c$66$1_0$128	= .
                                    353 	.globl	C$Sprite_Engine.c$66$1_0$128
                                    354 ;src/engine/Sprite_Engine.c:66: meta->tile2->id = meta->meta_id + 2;
      0000E0 F8 1C                  355 	ldhl	sp,	#28
      0000E2 2A                     356 	ld	a, (hl+)
      0000E3 4F                     357 	ld	c, a
                           0000E4   358 	C$Sprite_Engine.c$67$1_0$128	= .
                                    359 	.globl	C$Sprite_Engine.c$67$1_0$128
                                    360 ;src/engine/Sprite_Engine.c:67: meta->tile3->id = meta->meta_id + 3;
      0000E4 2A                     361 	ld	a, (hl+)
      0000E5 47                     362 	ld	b, a
      0000E6 7B                     363 	ld	a, e
      0000E7 3C                     364 	inc	a
      0000E8 3C                     365 	inc	a
      0000E9 02                     366 	ld	(bc), a
      0000EA 2A                     367 	ld	a, (hl+)
      0000EB 4F                     368 	ld	c, a
      0000EC 46                     369 	ld	b, (hl)
      0000ED 7B                     370 	ld	a, e
      0000EE 3C                     371 	inc	a
      0000EF 3C                     372 	inc	a
      0000F0 3C                     373 	inc	a
      0000F1 02                     374 	ld	(bc), a
                           0000F2   375 	C$Sprite_Engine.c$70$1_0$128	= .
                                    376 	.globl	C$Sprite_Engine.c$70$1_0$128
                                    377 ;src/engine/Sprite_Engine.c:70: meta->tile0->init_tile = (meta->init_tile * meta->texture_idx);
      0000F2 F8 18                  378 	ldhl	sp,	#24
      0000F4 2A                     379 	ld	a, (hl+)
      0000F5 4F                     380 	ld	c, a
      0000F6 3A                     381 	ld	a, (hl-)
      0000F7 2B                     382 	dec	hl
      0000F8 47                     383 	ld	b, a
      0000F9 03                     384 	inc	bc
      0000FA C5                     385 	push	bc
      0000FB 3A                     386 	ld	a, (hl-)
      0000FC 2B                     387 	dec	hl
      0000FD F5                     388 	push	af
      0000FE 33                     389 	inc	sp
      0000FF 7E                     390 	ld	a, (hl)
      000100 F5                     391 	push	af
      000101 33                     392 	inc	sp
      000102 CDr00r00               393 	call	__muluchar
      000105 E1                     394 	pop	hl
      000106 C1                     395 	pop	bc
      000107 7B                     396 	ld	a, e
      000108 02                     397 	ld	(bc), a
                           000109   398 	C$Sprite_Engine.c$71$1_0$128	= .
                                    399 	.globl	C$Sprite_Engine.c$71$1_0$128
                                    400 ;src/engine/Sprite_Engine.c:71: meta->tile1->init_tile = (meta->init_tile * meta->texture_idx) + 1;
      000109 F8 1A                  401 	ldhl	sp,	#26
      00010B 2A                     402 	ld	a, (hl+)
      00010C 4F                     403 	ld	c, a
                           00010D   404 	C$Sprite_Engine.c$72$1_0$128	= .
                                    405 	.globl	C$Sprite_Engine.c$72$1_0$128
                                    406 ;src/engine/Sprite_Engine.c:72: meta->tile2->init_tile = (meta->init_tile * meta->texture_idx) + 2;
      00010D 2A                     407 	ld	a, (hl+)
      00010E 47                     408 	ld	b, a
      00010F 03                     409 	inc	bc
      000110 7B                     410 	ld	a, e
      000111 3C                     411 	inc	a
      000112 02                     412 	ld	(bc), a
      000113 2A                     413 	ld	a, (hl+)
      000114 4F                     414 	ld	c, a
                           000115   415 	C$Sprite_Engine.c$73$1_0$128	= .
                                    416 	.globl	C$Sprite_Engine.c$73$1_0$128
                                    417 ;src/engine/Sprite_Engine.c:73: meta->tile3->init_tile = (meta->init_tile * meta->texture_idx) + 3;
      000115 2A                     418 	ld	a, (hl+)
      000116 47                     419 	ld	b, a
      000117 03                     420 	inc	bc
      000118 7B                     421 	ld	a, e
      000119 3C                     422 	inc	a
      00011A 3C                     423 	inc	a
      00011B 02                     424 	ld	(bc), a
      00011C 2A                     425 	ld	a, (hl+)
      00011D 4F                     426 	ld	c, a
      00011E 46                     427 	ld	b, (hl)
      00011F 03                     428 	inc	bc
      000120 7B                     429 	ld	a, e
      000121 3C                     430 	inc	a
      000122 3C                     431 	inc	a
      000123 3C                     432 	inc	a
      000124 02                     433 	ld	(bc), a
                           000125   434 	C$Sprite_Engine.c$76$1_0$128	= .
                                    435 	.globl	C$Sprite_Engine.c$76$1_0$128
                                    436 ;src/engine/Sprite_Engine.c:76: meta->tile0->max_tile = (meta->max_tile * meta->texture_idx);
      000125 F8 18                  437 	ldhl	sp,	#24
      000127 2A                     438 	ld	a, (hl+)
      000128 4F                     439 	ld	c, a
      000129 3A                     440 	ld	a, (hl-)
      00012A 2B                     441 	dec	hl
      00012B 47                     442 	ld	b, a
      00012C 03                     443 	inc	bc
      00012D 03                     444 	inc	bc
      00012E C5                     445 	push	bc
      00012F 3A                     446 	ld	a, (hl-)
      000130 57                     447 	ld	d, a
      000131 5E                     448 	ld	e, (hl)
      000132 D5                     449 	push	de
      000133 CDr00r00               450 	call	__muluchar
      000136 E1                     451 	pop	hl
      000137 C1                     452 	pop	bc
      000138 7B                     453 	ld	a, e
      000139 02                     454 	ld	(bc), a
                           00013A   455 	C$Sprite_Engine.c$77$1_0$128	= .
                                    456 	.globl	C$Sprite_Engine.c$77$1_0$128
                                    457 ;src/engine/Sprite_Engine.c:77: meta->tile1->max_tile = (meta->max_tile * meta->texture_idx) + 1;
      00013A F8 1A                  458 	ldhl	sp,	#26
      00013C 2A                     459 	ld	a, (hl+)
      00013D 4F                     460 	ld	c, a
                           00013E   461 	C$Sprite_Engine.c$78$1_0$128	= .
                                    462 	.globl	C$Sprite_Engine.c$78$1_0$128
                                    463 ;src/engine/Sprite_Engine.c:78: meta->tile2->max_tile = (meta->max_tile * meta->texture_idx) + 2;
      00013E 2A                     464 	ld	a, (hl+)
      00013F 47                     465 	ld	b, a
      000140 03                     466 	inc	bc
      000141 03                     467 	inc	bc
      000142 7B                     468 	ld	a, e
      000143 3C                     469 	inc	a
      000144 02                     470 	ld	(bc), a
      000145 2A                     471 	ld	a, (hl+)
      000146 4F                     472 	ld	c, a
                           000147   473 	C$Sprite_Engine.c$79$1_0$128	= .
                                    474 	.globl	C$Sprite_Engine.c$79$1_0$128
                                    475 ;src/engine/Sprite_Engine.c:79: meta->tile3->max_tile = (meta->max_tile * meta->texture_idx) + 3;
      000147 2A                     476 	ld	a, (hl+)
      000148 47                     477 	ld	b, a
      000149 03                     478 	inc	bc
      00014A 03                     479 	inc	bc
      00014B 7B                     480 	ld	a, e
      00014C 3C                     481 	inc	a
      00014D 3C                     482 	inc	a
      00014E 02                     483 	ld	(bc), a
      00014F 2A                     484 	ld	a, (hl+)
      000150 4F                     485 	ld	c, a
      000151 46                     486 	ld	b, (hl)
      000152 03                     487 	inc	bc
      000153 03                     488 	inc	bc
      000154 7B                     489 	ld	a, e
      000155 3C                     490 	inc	a
      000156 3C                     491 	inc	a
      000157 3C                     492 	inc	a
      000158 02                     493 	ld	(bc), a
                           000159   494 	C$Sprite_Engine.c$83$1_0$128	= .
                                    495 	.globl	C$Sprite_Engine.c$83$1_0$128
                                    496 ;src/engine/Sprite_Engine.c:83: set_sprite_position(meta->tile0, meta->tile0->x, meta->tile0->y);
      000159 F8 18                  497 	ldhl	sp,#24
      00015B 2A                     498 	ld	a, (hl+)
      00015C 5F                     499 	ld	e, a
      00015D 56                     500 	ld	d, (hl)
      00015E 21 04 00               501 	ld	hl, #0x0004
      000161 19                     502 	add	hl, de
      000162 4D                     503 	ld	c, l
      000163 44                     504 	ld	b, h
      000164 0A                     505 	ld	a, (bc)
      000165 47                     506 	ld	b, a
      000166 F8 18                  507 	ldhl	sp,	#24
      000168 2A                     508 	ld	a, (hl+)
      000169 5F                     509 	ld	e, a
      00016A 3A                     510 	ld	a, (hl-)
      00016B 57                     511 	ld	d, a
      00016C 13                     512 	inc	de
      00016D 13                     513 	inc	de
      00016E 13                     514 	inc	de
      00016F 1A                     515 	ld	a, (de)
      000170 C5                     516 	push	bc
      000171 33                     517 	inc	sp
      000172 F5                     518 	push	af
      000173 33                     519 	inc	sp
      000174 2A                     520 	ld	a, (hl+)
      000175 5F                     521 	ld	e, a
      000176 56                     522 	ld	d, (hl)
      000177 D5                     523 	push	de
      000178 CDr0Cr06               524 	call	_set_sprite_position
      00017B E8 04                  525 	add	sp, #4
                           00017D   526 	C$Sprite_Engine.c$84$1_0$128	= .
                                    527 	.globl	C$Sprite_Engine.c$84$1_0$128
                                    528 ;src/engine/Sprite_Engine.c:84: set_sprite_velocity(meta->tile0, meta->velocity);
      00017D D1                     529 	pop	de
      00017E D5                     530 	push	de
      00017F 21 06 00               531 	ld	hl, #0x0006
      000182 19                     532 	add	hl, de
      000183 E5                     533 	push	hl
      000184 7D                     534 	ld	a, l
      000185 F8 0C                  535 	ldhl	sp,	#12
      000187 77                     536 	ld	(hl), a
      000188 E1                     537 	pop	hl
      000189 7C                     538 	ld	a, h
      00018A F8 0B                  539 	ldhl	sp,	#11
      00018C 32                     540 	ld	(hl-), a
      00018D 2A                     541 	ld	a, (hl+)
      00018E 5F                     542 	ld	e, a
      00018F 56                     543 	ld	d, (hl)
      000190 1A                     544 	ld	a, (de)
      000191 47                     545 	ld	b, a
      000192 F8 02                  546 	ldhl	sp,#2
      000194 2A                     547 	ld	a, (hl+)
      000195 5F                     548 	ld	e, a
      000196 56                     549 	ld	d, (hl)
      000197 1A                     550 	ld	a, (de)
      000198 4F                     551 	ld	c, a
      000199 13                     552 	inc	de
      00019A 1A                     553 	ld	a, (de)
      00019B C5                     554 	push	bc
      00019C 33                     555 	inc	sp
      00019D 47                     556 	ld	b, a
      00019E C5                     557 	push	bc
      00019F CDr20r06               558 	call	_set_sprite_velocity
      0001A2 E8 03                  559 	add	sp, #3
                           0001A4   560 	C$Sprite_Engine.c$85$1_0$128	= .
                                    561 	.globl	C$Sprite_Engine.c$85$1_0$128
                                    562 ;src/engine/Sprite_Engine.c:85: set_sprite_visibility(meta->tile0, meta->is_visible);
      0001A4 D1                     563 	pop	de
      0001A5 D5                     564 	push	de
      0001A6 21 07 00               565 	ld	hl, #0x0007
      0001A9 19                     566 	add	hl, de
      0001AA E5                     567 	push	hl
      0001AB 7D                     568 	ld	a, l
      0001AC F8 0E                  569 	ldhl	sp,	#14
      0001AE 77                     570 	ld	(hl), a
      0001AF E1                     571 	pop	hl
      0001B0 7C                     572 	ld	a, h
      0001B1 F8 0D                  573 	ldhl	sp,	#13
      0001B3 32                     574 	ld	(hl-), a
      0001B4 2A                     575 	ld	a, (hl+)
      0001B5 5F                     576 	ld	e, a
      0001B6 56                     577 	ld	d, (hl)
      0001B7 1A                     578 	ld	a, (de)
      0001B8 47                     579 	ld	b, a
      0001B9 F8 02                  580 	ldhl	sp,#2
      0001BB 2A                     581 	ld	a, (hl+)
      0001BC 5F                     582 	ld	e, a
      0001BD 56                     583 	ld	d, (hl)
      0001BE 1A                     584 	ld	a, (de)
      0001BF 4F                     585 	ld	c, a
      0001C0 13                     586 	inc	de
      0001C1 1A                     587 	ld	a, (de)
      0001C2 C5                     588 	push	bc
      0001C3 33                     589 	inc	sp
      0001C4 47                     590 	ld	b, a
      0001C5 C5                     591 	push	bc
      0001C6 CDr2Er06               592 	call	_set_sprite_visibility
      0001C9 E8 03                  593 	add	sp, #3
                           0001CB   594 	C$Sprite_Engine.c$86$1_0$128	= .
                                    595 	.globl	C$Sprite_Engine.c$86$1_0$128
                                    596 ;src/engine/Sprite_Engine.c:86: set_sprite_hitbox(meta->tile0, meta->has_hitbox);
      0001CB D1                     597 	pop	de
      0001CC D5                     598 	push	de
      0001CD 21 08 00               599 	ld	hl, #0x0008
      0001D0 19                     600 	add	hl, de
      0001D1 E5                     601 	push	hl
      0001D2 7D                     602 	ld	a, l
      0001D3 F8 10                  603 	ldhl	sp,	#16
      0001D5 77                     604 	ld	(hl), a
      0001D6 E1                     605 	pop	hl
      0001D7 7C                     606 	ld	a, h
      0001D8 F8 0F                  607 	ldhl	sp,	#15
      0001DA 32                     608 	ld	(hl-), a
      0001DB 2A                     609 	ld	a, (hl+)
      0001DC 5F                     610 	ld	e, a
      0001DD 56                     611 	ld	d, (hl)
      0001DE 1A                     612 	ld	a, (de)
      0001DF 47                     613 	ld	b, a
      0001E0 F8 02                  614 	ldhl	sp,#2
      0001E2 2A                     615 	ld	a, (hl+)
      0001E3 5F                     616 	ld	e, a
      0001E4 56                     617 	ld	d, (hl)
      0001E5 1A                     618 	ld	a, (de)
      0001E6 4F                     619 	ld	c, a
      0001E7 13                     620 	inc	de
      0001E8 1A                     621 	ld	a, (de)
      0001E9 C5                     622 	push	bc
      0001EA 33                     623 	inc	sp
      0001EB 47                     624 	ld	b, a
      0001EC C5                     625 	push	bc
      0001ED CDr3Cr06               626 	call	_set_sprite_hitbox
      0001F0 E8 03                  627 	add	sp, #3
                           0001F2   628 	C$Sprite_Engine.c$84$1_0$128	= .
                                    629 	.globl	C$Sprite_Engine.c$84$1_0$128
                                    630 ;src/engine/Sprite_Engine.c:84: set_sprite_velocity(meta->tile0, meta->velocity);
      0001F2 F8 02                  631 	ldhl	sp,#2
      0001F4 2A                     632 	ld	a, (hl+)
      0001F5 5F                     633 	ld	e, a
      0001F6 56                     634 	ld	d, (hl)
      0001F7 1A                     635 	ld	a, (de)
      0001F8 4F                     636 	ld	c, a
      0001F9 13                     637 	inc	de
      0001FA 1A                     638 	ld	a, (de)
      0001FB 47                     639 	ld	b, a
                           0001FC   640 	C$Sprite_Engine.c$87$1_0$128	= .
                                    641 	.globl	C$Sprite_Engine.c$87$1_0$128
                                    642 ;src/engine/Sprite_Engine.c:87: init_sprite(meta->tile0, meta->tile0->id, meta->tile0->init_tile, meta->tile0->max_tile);
      0001FC 69                     643 	ld	l, c
                                    644 ;	spillPairReg hl
                                    645 ;	spillPairReg hl
      0001FD 60                     646 	ld	h, b
                                    647 ;	spillPairReg hl
                                    648 ;	spillPairReg hl
      0001FE 23                     649 	inc	hl
      0001FF 23                     650 	inc	hl
      000200 56                     651 	ld	d, (hl)
      000201 69                     652 	ld	l, c
                                    653 ;	spillPairReg hl
                                    654 ;	spillPairReg hl
      000202 60                     655 	ld	h, b
                                    656 ;	spillPairReg hl
                                    657 ;	spillPairReg hl
      000203 23                     658 	inc	hl
      000204 66                     659 	ld	h, (hl)
                                    660 ;	spillPairReg hl
      000205 0A                     661 	ld	a, (bc)
      000206 5C                     662 	ld	e, h
      000207 D5                     663 	push	de
      000208 F5                     664 	push	af
      000209 33                     665 	inc	sp
      00020A C5                     666 	push	bc
      00020B CDr00r00               667 	call	_init_sprite
      00020E E8 05                  668 	add	sp, #5
                           000210   669 	C$Sprite_Engine.c$89$1_0$128	= .
                                    670 	.globl	C$Sprite_Engine.c$89$1_0$128
                                    671 ;src/engine/Sprite_Engine.c:89: set_sprite_position(meta->tile1, meta->tile1->x, meta->tile1->y);
      000210 F8 04                  672 	ldhl	sp,#4
      000212 2A                     673 	ld	a, (hl+)
      000213 5F                     674 	ld	e, a
      000214 56                     675 	ld	d, (hl)
      000215 1A                     676 	ld	a, (de)
      000216 4F                     677 	ld	c, a
      000217 13                     678 	inc	de
      000218 1A                     679 	ld	a, (de)
      000219 47                     680 	ld	b, a
      00021A 21 04 00               681 	ld	hl, #0x0004
      00021D 09                     682 	add	hl, bc
      00021E 56                     683 	ld	d, (hl)
      00021F 69                     684 	ld	l, c
                                    685 ;	spillPairReg hl
                                    686 ;	spillPairReg hl
      000220 60                     687 	ld	h, b
                                    688 ;	spillPairReg hl
                                    689 ;	spillPairReg hl
      000221 23                     690 	inc	hl
      000222 23                     691 	inc	hl
      000223 23                     692 	inc	hl
      000224 7E                     693 	ld	a, (hl)
      000225 D5                     694 	push	de
      000226 33                     695 	inc	sp
      000227 F5                     696 	push	af
      000228 33                     697 	inc	sp
      000229 C5                     698 	push	bc
      00022A CDr0Cr06               699 	call	_set_sprite_position
      00022D E8 04                  700 	add	sp, #4
                           00022F   701 	C$Sprite_Engine.c$90$1_0$128	= .
                                    702 	.globl	C$Sprite_Engine.c$90$1_0$128
                                    703 ;src/engine/Sprite_Engine.c:90: set_sprite_velocity(meta->tile1, meta->velocity);
      00022F F8 0A                  704 	ldhl	sp,#10
      000231 2A                     705 	ld	a, (hl+)
      000232 5F                     706 	ld	e, a
      000233 56                     707 	ld	d, (hl)
      000234 1A                     708 	ld	a, (de)
      000235 47                     709 	ld	b, a
      000236 F8 04                  710 	ldhl	sp,#4
      000238 2A                     711 	ld	a, (hl+)
      000239 5F                     712 	ld	e, a
      00023A 56                     713 	ld	d, (hl)
      00023B 1A                     714 	ld	a, (de)
      00023C 4F                     715 	ld	c, a
      00023D 13                     716 	inc	de
      00023E 1A                     717 	ld	a, (de)
      00023F C5                     718 	push	bc
      000240 33                     719 	inc	sp
      000241 47                     720 	ld	b, a
      000242 C5                     721 	push	bc
      000243 CDr20r06               722 	call	_set_sprite_velocity
      000246 E8 03                  723 	add	sp, #3
                           000248   724 	C$Sprite_Engine.c$91$1_0$128	= .
                                    725 	.globl	C$Sprite_Engine.c$91$1_0$128
                                    726 ;src/engine/Sprite_Engine.c:91: set_sprite_visibility(meta->tile1, meta->is_visible);
      000248 F8 0C                  727 	ldhl	sp,#12
      00024A 2A                     728 	ld	a, (hl+)
      00024B 5F                     729 	ld	e, a
      00024C 56                     730 	ld	d, (hl)
      00024D 1A                     731 	ld	a, (de)
      00024E 47                     732 	ld	b, a
      00024F F8 04                  733 	ldhl	sp,#4
      000251 2A                     734 	ld	a, (hl+)
      000252 5F                     735 	ld	e, a
      000253 56                     736 	ld	d, (hl)
      000254 1A                     737 	ld	a, (de)
      000255 4F                     738 	ld	c, a
      000256 13                     739 	inc	de
      000257 1A                     740 	ld	a, (de)
      000258 C5                     741 	push	bc
      000259 33                     742 	inc	sp
      00025A 47                     743 	ld	b, a
      00025B C5                     744 	push	bc
      00025C CDr2Er06               745 	call	_set_sprite_visibility
      00025F E8 03                  746 	add	sp, #3
                           000261   747 	C$Sprite_Engine.c$92$1_0$128	= .
                                    748 	.globl	C$Sprite_Engine.c$92$1_0$128
                                    749 ;src/engine/Sprite_Engine.c:92: set_sprite_hitbox(meta->tile1, meta->has_hitbox);
      000261 F8 0E                  750 	ldhl	sp,#14
      000263 2A                     751 	ld	a, (hl+)
      000264 5F                     752 	ld	e, a
      000265 56                     753 	ld	d, (hl)
      000266 1A                     754 	ld	a, (de)
      000267 47                     755 	ld	b, a
      000268 F8 04                  756 	ldhl	sp,#4
      00026A 2A                     757 	ld	a, (hl+)
      00026B 5F                     758 	ld	e, a
      00026C 56                     759 	ld	d, (hl)
      00026D 1A                     760 	ld	a, (de)
      00026E 4F                     761 	ld	c, a
      00026F 13                     762 	inc	de
      000270 1A                     763 	ld	a, (de)
      000271 C5                     764 	push	bc
      000272 33                     765 	inc	sp
      000273 47                     766 	ld	b, a
      000274 C5                     767 	push	bc
      000275 CDr3Cr06               768 	call	_set_sprite_hitbox
      000278 E8 03                  769 	add	sp, #3
                           00027A   770 	C$Sprite_Engine.c$89$1_0$128	= .
                                    771 	.globl	C$Sprite_Engine.c$89$1_0$128
                                    772 ;src/engine/Sprite_Engine.c:89: set_sprite_position(meta->tile1, meta->tile1->x, meta->tile1->y);
      00027A F8 04                  773 	ldhl	sp,#4
      00027C 2A                     774 	ld	a, (hl+)
      00027D 5F                     775 	ld	e, a
      00027E 56                     776 	ld	d, (hl)
      00027F 1A                     777 	ld	a, (de)
      000280 4F                     778 	ld	c, a
      000281 13                     779 	inc	de
      000282 1A                     780 	ld	a, (de)
      000283 47                     781 	ld	b, a
                           000284   782 	C$Sprite_Engine.c$93$1_0$128	= .
                                    783 	.globl	C$Sprite_Engine.c$93$1_0$128
                                    784 ;src/engine/Sprite_Engine.c:93: init_sprite(meta->tile1, meta->tile1->id, meta->tile1->init_tile, meta->tile1->max_tile);
      000284 69                     785 	ld	l, c
                                    786 ;	spillPairReg hl
                                    787 ;	spillPairReg hl
      000285 60                     788 	ld	h, b
                                    789 ;	spillPairReg hl
                                    790 ;	spillPairReg hl
      000286 23                     791 	inc	hl
      000287 23                     792 	inc	hl
      000288 56                     793 	ld	d, (hl)
      000289 69                     794 	ld	l, c
                                    795 ;	spillPairReg hl
                                    796 ;	spillPairReg hl
      00028A 60                     797 	ld	h, b
                                    798 ;	spillPairReg hl
                                    799 ;	spillPairReg hl
      00028B 23                     800 	inc	hl
      00028C 66                     801 	ld	h, (hl)
                                    802 ;	spillPairReg hl
      00028D 0A                     803 	ld	a, (bc)
      00028E 5C                     804 	ld	e, h
      00028F D5                     805 	push	de
      000290 F5                     806 	push	af
      000291 33                     807 	inc	sp
      000292 C5                     808 	push	bc
      000293 CDr00r00               809 	call	_init_sprite
      000296 E8 05                  810 	add	sp, #5
                           000298   811 	C$Sprite_Engine.c$95$1_0$128	= .
                                    812 	.globl	C$Sprite_Engine.c$95$1_0$128
                                    813 ;src/engine/Sprite_Engine.c:95: set_sprite_position(meta->tile2, meta->tile2->x, meta->tile2->y);
      000298 F8 06                  814 	ldhl	sp,#6
      00029A 2A                     815 	ld	a, (hl+)
      00029B 5F                     816 	ld	e, a
      00029C 56                     817 	ld	d, (hl)
      00029D 1A                     818 	ld	a, (de)
      00029E 4F                     819 	ld	c, a
      00029F 13                     820 	inc	de
      0002A0 1A                     821 	ld	a, (de)
      0002A1 47                     822 	ld	b, a
      0002A2 21 04 00               823 	ld	hl, #0x0004
      0002A5 09                     824 	add	hl, bc
      0002A6 56                     825 	ld	d, (hl)
      0002A7 69                     826 	ld	l, c
                                    827 ;	spillPairReg hl
                                    828 ;	spillPairReg hl
      0002A8 60                     829 	ld	h, b
                                    830 ;	spillPairReg hl
                                    831 ;	spillPairReg hl
      0002A9 23                     832 	inc	hl
      0002AA 23                     833 	inc	hl
      0002AB 23                     834 	inc	hl
      0002AC 7E                     835 	ld	a, (hl)
      0002AD D5                     836 	push	de
      0002AE 33                     837 	inc	sp
      0002AF F5                     838 	push	af
      0002B0 33                     839 	inc	sp
      0002B1 C5                     840 	push	bc
      0002B2 CDr0Cr06               841 	call	_set_sprite_position
      0002B5 E8 04                  842 	add	sp, #4
                           0002B7   843 	C$Sprite_Engine.c$96$1_0$128	= .
                                    844 	.globl	C$Sprite_Engine.c$96$1_0$128
                                    845 ;src/engine/Sprite_Engine.c:96: set_sprite_velocity(meta->tile2, meta->velocity);
      0002B7 F8 0A                  846 	ldhl	sp,#10
      0002B9 2A                     847 	ld	a, (hl+)
      0002BA 5F                     848 	ld	e, a
      0002BB 56                     849 	ld	d, (hl)
      0002BC 1A                     850 	ld	a, (de)
      0002BD 47                     851 	ld	b, a
      0002BE F8 06                  852 	ldhl	sp,#6
      0002C0 2A                     853 	ld	a, (hl+)
      0002C1 5F                     854 	ld	e, a
      0002C2 56                     855 	ld	d, (hl)
      0002C3 1A                     856 	ld	a, (de)
      0002C4 4F                     857 	ld	c, a
      0002C5 13                     858 	inc	de
      0002C6 1A                     859 	ld	a, (de)
      0002C7 C5                     860 	push	bc
      0002C8 33                     861 	inc	sp
      0002C9 47                     862 	ld	b, a
      0002CA C5                     863 	push	bc
      0002CB CDr20r06               864 	call	_set_sprite_velocity
      0002CE E8 03                  865 	add	sp, #3
                           0002D0   866 	C$Sprite_Engine.c$97$1_0$128	= .
                                    867 	.globl	C$Sprite_Engine.c$97$1_0$128
                                    868 ;src/engine/Sprite_Engine.c:97: set_sprite_visibility(meta->tile2, meta->is_visible);
      0002D0 F8 0C                  869 	ldhl	sp,#12
      0002D2 2A                     870 	ld	a, (hl+)
      0002D3 5F                     871 	ld	e, a
      0002D4 56                     872 	ld	d, (hl)
      0002D5 1A                     873 	ld	a, (de)
      0002D6 47                     874 	ld	b, a
      0002D7 F8 06                  875 	ldhl	sp,#6
      0002D9 2A                     876 	ld	a, (hl+)
      0002DA 5F                     877 	ld	e, a
      0002DB 56                     878 	ld	d, (hl)
      0002DC 1A                     879 	ld	a, (de)
      0002DD 4F                     880 	ld	c, a
      0002DE 13                     881 	inc	de
      0002DF 1A                     882 	ld	a, (de)
      0002E0 C5                     883 	push	bc
      0002E1 33                     884 	inc	sp
      0002E2 47                     885 	ld	b, a
      0002E3 C5                     886 	push	bc
      0002E4 CDr2Er06               887 	call	_set_sprite_visibility
      0002E7 E8 03                  888 	add	sp, #3
                           0002E9   889 	C$Sprite_Engine.c$98$1_0$128	= .
                                    890 	.globl	C$Sprite_Engine.c$98$1_0$128
                                    891 ;src/engine/Sprite_Engine.c:98: set_sprite_hitbox(meta->tile2, meta->has_hitbox);
      0002E9 F8 0E                  892 	ldhl	sp,#14
      0002EB 2A                     893 	ld	a, (hl+)
      0002EC 5F                     894 	ld	e, a
      0002ED 56                     895 	ld	d, (hl)
      0002EE 1A                     896 	ld	a, (de)
      0002EF 47                     897 	ld	b, a
      0002F0 F8 06                  898 	ldhl	sp,#6
      0002F2 2A                     899 	ld	a, (hl+)
      0002F3 5F                     900 	ld	e, a
      0002F4 56                     901 	ld	d, (hl)
      0002F5 1A                     902 	ld	a, (de)
      0002F6 4F                     903 	ld	c, a
      0002F7 13                     904 	inc	de
      0002F8 1A                     905 	ld	a, (de)
      0002F9 C5                     906 	push	bc
      0002FA 33                     907 	inc	sp
      0002FB 47                     908 	ld	b, a
      0002FC C5                     909 	push	bc
      0002FD CDr3Cr06               910 	call	_set_sprite_hitbox
      000300 E8 03                  911 	add	sp, #3
                           000302   912 	C$Sprite_Engine.c$95$1_0$128	= .
                                    913 	.globl	C$Sprite_Engine.c$95$1_0$128
                                    914 ;src/engine/Sprite_Engine.c:95: set_sprite_position(meta->tile2, meta->tile2->x, meta->tile2->y);
      000302 F8 06                  915 	ldhl	sp,#6
      000304 2A                     916 	ld	a, (hl+)
      000305 5F                     917 	ld	e, a
      000306 56                     918 	ld	d, (hl)
      000307 1A                     919 	ld	a, (de)
      000308 4F                     920 	ld	c, a
      000309 13                     921 	inc	de
      00030A 1A                     922 	ld	a, (de)
      00030B 47                     923 	ld	b, a
                           00030C   924 	C$Sprite_Engine.c$99$1_0$128	= .
                                    925 	.globl	C$Sprite_Engine.c$99$1_0$128
                                    926 ;src/engine/Sprite_Engine.c:99: init_sprite(meta->tile2, meta->tile2->id, meta->tile2->init_tile, meta->tile2->max_tile);
      00030C 69                     927 	ld	l, c
                                    928 ;	spillPairReg hl
                                    929 ;	spillPairReg hl
      00030D 60                     930 	ld	h, b
                                    931 ;	spillPairReg hl
                                    932 ;	spillPairReg hl
      00030E 23                     933 	inc	hl
      00030F 23                     934 	inc	hl
      000310 56                     935 	ld	d, (hl)
      000311 69                     936 	ld	l, c
                                    937 ;	spillPairReg hl
                                    938 ;	spillPairReg hl
      000312 60                     939 	ld	h, b
                                    940 ;	spillPairReg hl
                                    941 ;	spillPairReg hl
      000313 23                     942 	inc	hl
      000314 66                     943 	ld	h, (hl)
                                    944 ;	spillPairReg hl
      000315 0A                     945 	ld	a, (bc)
      000316 5C                     946 	ld	e, h
      000317 D5                     947 	push	de
      000318 F5                     948 	push	af
      000319 33                     949 	inc	sp
      00031A C5                     950 	push	bc
      00031B CDr00r00               951 	call	_init_sprite
      00031E E8 05                  952 	add	sp, #5
                           000320   953 	C$Sprite_Engine.c$101$1_0$128	= .
                                    954 	.globl	C$Sprite_Engine.c$101$1_0$128
                                    955 ;src/engine/Sprite_Engine.c:101: set_sprite_position(meta->tile3, meta->tile3->x, meta->tile3->y);
      000320 F8 08                  956 	ldhl	sp,#8
      000322 2A                     957 	ld	a, (hl+)
      000323 5F                     958 	ld	e, a
      000324 56                     959 	ld	d, (hl)
      000325 1A                     960 	ld	a, (de)
      000326 4F                     961 	ld	c, a
      000327 13                     962 	inc	de
      000328 1A                     963 	ld	a, (de)
      000329 47                     964 	ld	b, a
      00032A 21 04 00               965 	ld	hl, #0x0004
      00032D 09                     966 	add	hl, bc
      00032E 56                     967 	ld	d, (hl)
      00032F 69                     968 	ld	l, c
                                    969 ;	spillPairReg hl
                                    970 ;	spillPairReg hl
      000330 60                     971 	ld	h, b
                                    972 ;	spillPairReg hl
                                    973 ;	spillPairReg hl
      000331 23                     974 	inc	hl
      000332 23                     975 	inc	hl
      000333 23                     976 	inc	hl
      000334 7E                     977 	ld	a, (hl)
      000335 D5                     978 	push	de
      000336 33                     979 	inc	sp
      000337 F5                     980 	push	af
      000338 33                     981 	inc	sp
      000339 C5                     982 	push	bc
      00033A CDr0Cr06               983 	call	_set_sprite_position
      00033D E8 04                  984 	add	sp, #4
                           00033F   985 	C$Sprite_Engine.c$102$1_0$128	= .
                                    986 	.globl	C$Sprite_Engine.c$102$1_0$128
                                    987 ;src/engine/Sprite_Engine.c:102: set_sprite_velocity(meta->tile3, meta->velocity);
      00033F F8 0A                  988 	ldhl	sp,#10
      000341 2A                     989 	ld	a, (hl+)
      000342 5F                     990 	ld	e, a
      000343 3A                     991 	ld	a, (hl-)
      000344 2B                     992 	dec	hl
      000345 2B                     993 	dec	hl
      000346 57                     994 	ld	d, a
      000347 1A                     995 	ld	a, (de)
      000348 47                     996 	ld	b, a
      000349 2A                     997 	ld	a, (hl+)
      00034A 5F                     998 	ld	e, a
      00034B 56                     999 	ld	d, (hl)
      00034C 1A                    1000 	ld	a, (de)
      00034D 4F                    1001 	ld	c, a
      00034E 13                    1002 	inc	de
      00034F 1A                    1003 	ld	a, (de)
      000350 C5                    1004 	push	bc
      000351 33                    1005 	inc	sp
      000352 47                    1006 	ld	b, a
      000353 C5                    1007 	push	bc
      000354 CDr20r06              1008 	call	_set_sprite_velocity
      000357 E8 03                 1009 	add	sp, #3
                           000359  1010 	C$Sprite_Engine.c$103$1_0$128	= .
                                   1011 	.globl	C$Sprite_Engine.c$103$1_0$128
                                   1012 ;src/engine/Sprite_Engine.c:103: set_sprite_visibility(meta->tile3, meta->is_visible);
      000359 F8 0C                 1013 	ldhl	sp,#12
      00035B 2A                    1014 	ld	a, (hl+)
      00035C 5F                    1015 	ld	e, a
      00035D 56                    1016 	ld	d, (hl)
      00035E 1A                    1017 	ld	a, (de)
      00035F 47                    1018 	ld	b, a
      000360 F8 08                 1019 	ldhl	sp,#8
      000362 2A                    1020 	ld	a, (hl+)
      000363 5F                    1021 	ld	e, a
      000364 56                    1022 	ld	d, (hl)
      000365 1A                    1023 	ld	a, (de)
      000366 4F                    1024 	ld	c, a
      000367 13                    1025 	inc	de
      000368 1A                    1026 	ld	a, (de)
      000369 C5                    1027 	push	bc
      00036A 33                    1028 	inc	sp
      00036B 47                    1029 	ld	b, a
      00036C C5                    1030 	push	bc
      00036D CDr2Er06              1031 	call	_set_sprite_visibility
      000370 E8 03                 1032 	add	sp, #3
                           000372  1033 	C$Sprite_Engine.c$104$1_0$128	= .
                                   1034 	.globl	C$Sprite_Engine.c$104$1_0$128
                                   1035 ;src/engine/Sprite_Engine.c:104: set_sprite_hitbox(meta->tile3, meta->has_hitbox);
      000372 F8 0E                 1036 	ldhl	sp,#14
      000374 2A                    1037 	ld	a, (hl+)
      000375 5F                    1038 	ld	e, a
      000376 56                    1039 	ld	d, (hl)
      000377 1A                    1040 	ld	a, (de)
      000378 47                    1041 	ld	b, a
      000379 F8 08                 1042 	ldhl	sp,#8
      00037B 2A                    1043 	ld	a, (hl+)
      00037C 5F                    1044 	ld	e, a
      00037D 56                    1045 	ld	d, (hl)
      00037E 1A                    1046 	ld	a, (de)
      00037F 4F                    1047 	ld	c, a
      000380 13                    1048 	inc	de
      000381 1A                    1049 	ld	a, (de)
      000382 C5                    1050 	push	bc
      000383 33                    1051 	inc	sp
      000384 47                    1052 	ld	b, a
      000385 C5                    1053 	push	bc
      000386 CDr3Cr06              1054 	call	_set_sprite_hitbox
      000389 E8 03                 1055 	add	sp, #3
                           00038B  1056 	C$Sprite_Engine.c$101$1_0$128	= .
                                   1057 	.globl	C$Sprite_Engine.c$101$1_0$128
                                   1058 ;src/engine/Sprite_Engine.c:101: set_sprite_position(meta->tile3, meta->tile3->x, meta->tile3->y);
      00038B F8 08                 1059 	ldhl	sp,#8
      00038D 2A                    1060 	ld	a, (hl+)
      00038E 5F                    1061 	ld	e, a
      00038F 56                    1062 	ld	d, (hl)
      000390 1A                    1063 	ld	a, (de)
      000391 4F                    1064 	ld	c, a
      000392 13                    1065 	inc	de
      000393 1A                    1066 	ld	a, (de)
      000394 47                    1067 	ld	b, a
                           000395  1068 	C$Sprite_Engine.c$105$1_0$128	= .
                                   1069 	.globl	C$Sprite_Engine.c$105$1_0$128
                                   1070 ;src/engine/Sprite_Engine.c:105: init_sprite(meta->tile3, meta->tile3->id, meta->tile3->init_tile, meta->tile3->max_tile);
      000395 69                    1071 	ld	l, c
                                   1072 ;	spillPairReg hl
                                   1073 ;	spillPairReg hl
      000396 60                    1074 	ld	h, b
                                   1075 ;	spillPairReg hl
                                   1076 ;	spillPairReg hl
      000397 23                    1077 	inc	hl
      000398 23                    1078 	inc	hl
      000399 56                    1079 	ld	d, (hl)
      00039A 69                    1080 	ld	l, c
                                   1081 ;	spillPairReg hl
                                   1082 ;	spillPairReg hl
      00039B 60                    1083 	ld	h, b
                                   1084 ;	spillPairReg hl
                                   1085 ;	spillPairReg hl
      00039C 23                    1086 	inc	hl
      00039D 66                    1087 	ld	h, (hl)
                                   1088 ;	spillPairReg hl
      00039E 0A                    1089 	ld	a, (bc)
      00039F 5C                    1090 	ld	e, h
      0003A0 D5                    1091 	push	de
      0003A1 F5                    1092 	push	af
      0003A2 33                    1093 	inc	sp
      0003A3 C5                    1094 	push	bc
      0003A4 CDr00r00              1095 	call	_init_sprite
                           0003A7  1096 	C$Sprite_Engine.c$106$1_0$128	= .
                                   1097 	.globl	C$Sprite_Engine.c$106$1_0$128
                                   1098 ;src/engine/Sprite_Engine.c:106: }
      0003A7 E8 15                 1099 	add	sp, #21
                           0003A9  1100 	C$Sprite_Engine.c$106$1_0$128	= .
                                   1101 	.globl	C$Sprite_Engine.c$106$1_0$128
                           0003A9  1102 	XG$init_16x16_meta$0$0	= .
                                   1103 	.globl	XG$init_16x16_meta$0$0
      0003A9 C9                    1104 	ret
                           0003AA  1105 	G$init_16x16_meta_old$0$0	= .
                                   1106 	.globl	G$init_16x16_meta_old$0$0
                           0003AA  1107 	C$Sprite_Engine.c$108$1_0$130	= .
                                   1108 	.globl	C$Sprite_Engine.c$108$1_0$130
                                   1109 ;src/engine/Sprite_Engine.c:108: void init_16x16_meta_old(MetaSprite16x16* meta, uint8_t meta_id, uint8_t init_tile, uint8_t max_tile, uint8_t texture_idx, uint8_t x, uint8_t y, Sprite* tile0, Sprite* tile1, Sprite* tile2, Sprite* tile3) {
                                   1110 ;	---------------------------------
                                   1111 ; Function init_16x16_meta_old
                                   1112 ; ---------------------------------
      0003AA                       1113 _init_16x16_meta_old::
      0003AA E8 F8                 1114 	add	sp, #-8
                           0003AC  1115 	C$Sprite_Engine.c$109$1_0$130	= .
                                   1116 	.globl	C$Sprite_Engine.c$109$1_0$130
                                   1117 ;src/engine/Sprite_Engine.c:109: meta->meta_id = meta_id;
      0003AC F8 0A                 1118 	ldhl	sp,	#10
      0003AE 2A                    1119 	ld	a, (hl+)
      0003AF 4F                    1120 	ld	c, a
      0003B0 2A                    1121 	ld	a, (hl+)
      0003B1 47                    1122 	ld	b, a
                           0003B2  1123 	C$Sprite_Engine.c$110$1_0$130	= .
                                   1124 	.globl	C$Sprite_Engine.c$110$1_0$130
                                   1125 ;src/engine/Sprite_Engine.c:110: meta->init_tile = init_tile;
      0003B2 2A                    1126 	ld	a, (hl+)
      0003B3 02                    1127 	ld	(bc), a
      0003B4 59                    1128 	ld	e, c
      0003B5 50                    1129 	ld	d, b
      0003B6 13                    1130 	inc	de
                           0003B7  1131 	C$Sprite_Engine.c$111$1_0$130	= .
                                   1132 	.globl	C$Sprite_Engine.c$111$1_0$130
                                   1133 ;src/engine/Sprite_Engine.c:111: meta->max_tile = max_tile;
      0003B7 2A                    1134 	ld	a, (hl+)
      0003B8 12                    1135 	ld	(de), a
      0003B9 59                    1136 	ld	e, c
      0003BA 50                    1137 	ld	d, b
      0003BB 13                    1138 	inc	de
      0003BC 13                    1139 	inc	de
                           0003BD  1140 	C$Sprite_Engine.c$112$1_0$130	= .
                                   1141 	.globl	C$Sprite_Engine.c$112$1_0$130
                                   1142 ;src/engine/Sprite_Engine.c:112: meta->texture_idx = texture_idx;
      0003BD 2A                    1143 	ld	a, (hl+)
      0003BE 12                    1144 	ld	(de), a
      0003BF 59                    1145 	ld	e, c
      0003C0 50                    1146 	ld	d, b
      0003C1 13                    1147 	inc	de
      0003C2 13                    1148 	inc	de
      0003C3 13                    1149 	inc	de
      0003C4 7E                    1150 	ld	a, (hl)
      0003C5 12                    1151 	ld	(de), a
                           0003C6  1152 	C$Sprite_Engine.c$113$1_0$130	= .
                                   1153 	.globl	C$Sprite_Engine.c$113$1_0$130
                                   1154 ;src/engine/Sprite_Engine.c:113: meta->x = x;
      0003C6 21 04 00              1155 	ld	hl, #0x0004
      0003C9 09                    1156 	add	hl, bc
      0003CA 5D                    1157 	ld	e, l
      0003CB 54                    1158 	ld	d, h
      0003CC F8 10                 1159 	ldhl	sp,	#16
      0003CE 7E                    1160 	ld	a, (hl)
      0003CF 12                    1161 	ld	(de), a
                           0003D0  1162 	C$Sprite_Engine.c$114$1_0$130	= .
                                   1163 	.globl	C$Sprite_Engine.c$114$1_0$130
                                   1164 ;src/engine/Sprite_Engine.c:114: meta->y = y;
      0003D0 21 05 00              1165 	ld	hl, #0x0005
      0003D3 09                    1166 	add	hl, bc
      0003D4 5D                    1167 	ld	e, l
      0003D5 54                    1168 	ld	d, h
      0003D6 F8 11                 1169 	ldhl	sp,	#17
      0003D8 7E                    1170 	ld	a, (hl)
      0003D9 12                    1171 	ld	(de), a
                           0003DA  1172 	C$Sprite_Engine.c$117$1_0$130	= .
                                   1173 	.globl	C$Sprite_Engine.c$117$1_0$130
                                   1174 ;src/engine/Sprite_Engine.c:117: meta->tile0 = tile0;
      0003DA 21 09 00              1175 	ld	hl, #0x0009
      0003DD 09                    1176 	add	hl, bc
      0003DE 5D                    1177 	ld	e, l
      0003DF 54                    1178 	ld	d, h
      0003E0 F8 12                 1179 	ldhl	sp,	#18
      0003E2 2A                    1180 	ld	a, (hl+)
      0003E3 12                    1181 	ld	(de), a
      0003E4 13                    1182 	inc	de
      0003E5 7E                    1183 	ld	a, (hl)
      0003E6 12                    1184 	ld	(de), a
                           0003E7  1185 	C$Sprite_Engine.c$118$1_0$130	= .
                                   1186 	.globl	C$Sprite_Engine.c$118$1_0$130
                                   1187 ;src/engine/Sprite_Engine.c:118: meta->tile1 = tile1;
      0003E7 21 0B 00              1188 	ld	hl, #0x000b
      0003EA 09                    1189 	add	hl, bc
      0003EB 33                    1190 	inc	sp
      0003EC 33                    1191 	inc	sp
      0003ED 5D                    1192 	ld	e, l
      0003EE 54                    1193 	ld	d, h
      0003EF D5                    1194 	push	de
      0003F0 F8 14                 1195 	ldhl	sp,	#20
      0003F2 2A                    1196 	ld	a, (hl+)
      0003F3 12                    1197 	ld	(de), a
      0003F4 13                    1198 	inc	de
      0003F5 7E                    1199 	ld	a, (hl)
      0003F6 12                    1200 	ld	(de), a
                           0003F7  1201 	C$Sprite_Engine.c$119$1_0$130	= .
                                   1202 	.globl	C$Sprite_Engine.c$119$1_0$130
                                   1203 ;src/engine/Sprite_Engine.c:119: meta->tile2 = tile2;
      0003F7 21 0D 00              1204 	ld	hl, #0x000d
      0003FA 09                    1205 	add	hl, bc
      0003FB E5                    1206 	push	hl
      0003FC 7D                    1207 	ld	a, l
      0003FD F8 04                 1208 	ldhl	sp,	#4
      0003FF 77                    1209 	ld	(hl), a
      000400 E1                    1210 	pop	hl
      000401 7C                    1211 	ld	a, h
      000402 F8 03                 1212 	ldhl	sp,	#3
      000404 32                    1213 	ld	(hl-), a
      000405 2A                    1214 	ld	a, (hl+)
      000406 5F                    1215 	ld	e, a
      000407 56                    1216 	ld	d, (hl)
      000408 F8 16                 1217 	ldhl	sp,	#22
      00040A 2A                    1218 	ld	a, (hl+)
      00040B 12                    1219 	ld	(de), a
      00040C 13                    1220 	inc	de
      00040D 7E                    1221 	ld	a, (hl)
      00040E 12                    1222 	ld	(de), a
                           00040F  1223 	C$Sprite_Engine.c$120$1_0$130	= .
                                   1224 	.globl	C$Sprite_Engine.c$120$1_0$130
                                   1225 ;src/engine/Sprite_Engine.c:120: meta->tile3 = tile3;
      00040F 21 0F 00              1226 	ld	hl, #0x000f
      000412 09                    1227 	add	hl, bc
      000413 E5                    1228 	push	hl
      000414 7D                    1229 	ld	a, l
      000415 F8 06                 1230 	ldhl	sp,	#6
      000417 77                    1231 	ld	(hl), a
      000418 E1                    1232 	pop	hl
      000419 7C                    1233 	ld	a, h
      00041A F8 05                 1234 	ldhl	sp,	#5
      00041C 32                    1235 	ld	(hl-), a
      00041D 2A                    1236 	ld	a, (hl+)
      00041E 5F                    1237 	ld	e, a
      00041F 56                    1238 	ld	d, (hl)
      000420 F8 18                 1239 	ldhl	sp,	#24
      000422 2A                    1240 	ld	a, (hl+)
      000423 12                    1241 	ld	(de), a
      000424 13                    1242 	inc	de
      000425 7E                    1243 	ld	a, (hl)
      000426 12                    1244 	ld	(de), a
                           000427  1245 	C$Sprite_Engine.c$131$1_0$130	= .
                                   1246 	.globl	C$Sprite_Engine.c$131$1_0$130
                                   1247 ;src/engine/Sprite_Engine.c:131: meta->tile0->id = meta->meta_id;
      000427 F8 12                 1248 	ldhl	sp,	#18
      000429 2A                    1249 	ld	a, (hl+)
      00042A 4F                    1250 	ld	c, a
      00042B 46                    1251 	ld	b, (hl)
      00042C F8 0C                 1252 	ldhl	sp,	#12
      00042E 7E                    1253 	ld	a, (hl)
      00042F 02                    1254 	ld	(bc), a
                           000430  1255 	C$Sprite_Engine.c$132$1_0$130	= .
                                   1256 	.globl	C$Sprite_Engine.c$132$1_0$130
                                   1257 ;src/engine/Sprite_Engine.c:132: meta->tile1->id = meta->meta_id + 1;
      000430 F8 14                 1258 	ldhl	sp,	#20
      000432 2A                    1259 	ld	a, (hl+)
      000433 4F                    1260 	ld	c, a
      000434 46                    1261 	ld	b, (hl)
      000435 F8 0C                 1262 	ldhl	sp,	#12
      000437 5E                    1263 	ld	e, (hl)
      000438 7B                    1264 	ld	a, e
      000439 3C                    1265 	inc	a
      00043A 02                    1266 	ld	(bc), a
                           00043B  1267 	C$Sprite_Engine.c$133$1_0$130	= .
                                   1268 	.globl	C$Sprite_Engine.c$133$1_0$130
                                   1269 ;src/engine/Sprite_Engine.c:133: meta->tile2->id = meta->meta_id + 2;
      00043B F8 16                 1270 	ldhl	sp,	#22
      00043D 2A                    1271 	ld	a, (hl+)
      00043E 4F                    1272 	ld	c, a
                           00043F  1273 	C$Sprite_Engine.c$134$1_0$130	= .
                                   1274 	.globl	C$Sprite_Engine.c$134$1_0$130
                                   1275 ;src/engine/Sprite_Engine.c:134: meta->tile3->id = meta->meta_id + 3;
      00043F 2A                    1276 	ld	a, (hl+)
      000440 47                    1277 	ld	b, a
      000441 7B                    1278 	ld	a, e
      000442 3C                    1279 	inc	a
      000443 3C                    1280 	inc	a
      000444 02                    1281 	ld	(bc), a
      000445 2A                    1282 	ld	a, (hl+)
      000446 4F                    1283 	ld	c, a
      000447 46                    1284 	ld	b, (hl)
      000448 7B                    1285 	ld	a, e
      000449 3C                    1286 	inc	a
      00044A 3C                    1287 	inc	a
      00044B 3C                    1288 	inc	a
      00044C 02                    1289 	ld	(bc), a
                           00044D  1290 	C$Sprite_Engine.c$137$1_0$130	= .
                                   1291 	.globl	C$Sprite_Engine.c$137$1_0$130
                                   1292 ;src/engine/Sprite_Engine.c:137: meta->tile0->init_tile = (meta->init_tile * meta->texture_idx);
      00044D F8 12                 1293 	ldhl	sp,	#18
      00044F 2A                    1294 	ld	a, (hl+)
      000450 4F                    1295 	ld	c, a
      000451 46                    1296 	ld	b, (hl)
      000452 03                    1297 	inc	bc
      000453 C5                    1298 	push	bc
      000454 F8 11                 1299 	ldhl	sp,	#17
      000456 3A                    1300 	ld	a, (hl-)
      000457 2B                    1301 	dec	hl
      000458 F5                    1302 	push	af
      000459 33                    1303 	inc	sp
      00045A 7E                    1304 	ld	a, (hl)
      00045B F5                    1305 	push	af
      00045C 33                    1306 	inc	sp
      00045D CDr00r00              1307 	call	__muluchar
      000460 E1                    1308 	pop	hl
      000461 F8 09                 1309 	ldhl	sp,	#9
      000463 73                    1310 	ld	(hl), e
      000464 C1                    1311 	pop	bc
      000465 F8 07                 1312 	ldhl	sp,	#7
      000467 7E                    1313 	ld	a, (hl)
      000468 02                    1314 	ld	(bc), a
                           000469  1315 	C$Sprite_Engine.c$138$1_0$130	= .
                                   1316 	.globl	C$Sprite_Engine.c$138$1_0$130
                                   1317 ;src/engine/Sprite_Engine.c:138: meta->tile1->init_tile = (meta->init_tile * meta->texture_idx) + 1;
      000469 F8 14                 1318 	ldhl	sp,	#20
      00046B 2A                    1319 	ld	a, (hl+)
      00046C 4F                    1320 	ld	c, a
      00046D 46                    1321 	ld	b, (hl)
      00046E 03                    1322 	inc	bc
      00046F F8 07                 1323 	ldhl	sp,	#7
      000471 5E                    1324 	ld	e, (hl)
      000472 7B                    1325 	ld	a, e
      000473 3C                    1326 	inc	a
      000474 02                    1327 	ld	(bc), a
                           000475  1328 	C$Sprite_Engine.c$139$1_0$130	= .
                                   1329 	.globl	C$Sprite_Engine.c$139$1_0$130
                                   1330 ;src/engine/Sprite_Engine.c:139: meta->tile2->init_tile = (meta->init_tile * meta->texture_idx) + 2;
      000475 F8 16                 1331 	ldhl	sp,	#22
      000477 2A                    1332 	ld	a, (hl+)
      000478 4F                    1333 	ld	c, a
                           000479  1334 	C$Sprite_Engine.c$140$1_0$130	= .
                                   1335 	.globl	C$Sprite_Engine.c$140$1_0$130
                                   1336 ;src/engine/Sprite_Engine.c:140: meta->tile3->init_tile = (meta->init_tile * meta->texture_idx) + 3;
      000479 2A                    1337 	ld	a, (hl+)
      00047A 47                    1338 	ld	b, a
      00047B 03                    1339 	inc	bc
      00047C 7B                    1340 	ld	a, e
      00047D 3C                    1341 	inc	a
      00047E 3C                    1342 	inc	a
      00047F 02                    1343 	ld	(bc), a
      000480 2A                    1344 	ld	a, (hl+)
      000481 4F                    1345 	ld	c, a
      000482 46                    1346 	ld	b, (hl)
      000483 03                    1347 	inc	bc
      000484 7B                    1348 	ld	a, e
      000485 3C                    1349 	inc	a
      000486 3C                    1350 	inc	a
      000487 3C                    1351 	inc	a
      000488 02                    1352 	ld	(bc), a
                           000489  1353 	C$Sprite_Engine.c$143$1_0$130	= .
                                   1354 	.globl	C$Sprite_Engine.c$143$1_0$130
                                   1355 ;src/engine/Sprite_Engine.c:143: meta->tile0->max_tile = (meta->max_tile * meta->texture_idx);
      000489 F8 12                 1356 	ldhl	sp,	#18
      00048B 2A                    1357 	ld	a, (hl+)
      00048C 5F                    1358 	ld	e, a
      00048D 56                    1359 	ld	d, (hl)
      00048E 13                    1360 	inc	de
      00048F 13                    1361 	inc	de
      000490 D5                    1362 	push	de
      000491 F8 11                 1363 	ldhl	sp,	#17
      000493 3A                    1364 	ld	a, (hl-)
      000494 57                    1365 	ld	d, a
      000495 5E                    1366 	ld	e, (hl)
      000496 D5                    1367 	push	de
      000497 CDr00r00              1368 	call	__muluchar
      00049A E1                    1369 	pop	hl
      00049B 43                    1370 	ld	b, e
      00049C D1                    1371 	pop	de
      00049D 78                    1372 	ld	a, b
      00049E 12                    1373 	ld	(de), a
                           00049F  1374 	C$Sprite_Engine.c$144$1_0$130	= .
                                   1375 	.globl	C$Sprite_Engine.c$144$1_0$130
                                   1376 ;src/engine/Sprite_Engine.c:144: meta->tile1->max_tile = (meta->max_tile * meta->texture_idx) + 1;
      00049F F8 14                 1377 	ldhl	sp,	#20
      0004A1 2A                    1378 	ld	a, (hl+)
      0004A2 5F                    1379 	ld	e, a
                           0004A3  1380 	C$Sprite_Engine.c$145$1_0$130	= .
                                   1381 	.globl	C$Sprite_Engine.c$145$1_0$130
                                   1382 ;src/engine/Sprite_Engine.c:145: meta->tile2->max_tile = (meta->max_tile * meta->texture_idx) + 2;
      0004A3 2A                    1383 	ld	a, (hl+)
      0004A4 57                    1384 	ld	d, a
      0004A5 13                    1385 	inc	de
      0004A6 13                    1386 	inc	de
      0004A7 48                    1387 	ld	c, b
      0004A8 79                    1388 	ld	a, c
      0004A9 3C                    1389 	inc	a
      0004AA 12                    1390 	ld	(de), a
      0004AB 2A                    1391 	ld	a, (hl+)
      0004AC 5F                    1392 	ld	e, a
                           0004AD  1393 	C$Sprite_Engine.c$146$1_0$130	= .
                                   1394 	.globl	C$Sprite_Engine.c$146$1_0$130
                                   1395 ;src/engine/Sprite_Engine.c:146: meta->tile3->max_tile = (meta->max_tile * meta->texture_idx) + 3;
      0004AD 2A                    1396 	ld	a, (hl+)
      0004AE 57                    1397 	ld	d, a
      0004AF 13                    1398 	inc	de
      0004B0 13                    1399 	inc	de
      0004B1 79                    1400 	ld	a, c
      0004B2 3C                    1401 	inc	a
      0004B3 3C                    1402 	inc	a
      0004B4 12                    1403 	ld	(de), a
      0004B5 2A                    1404 	ld	a, (hl+)
      0004B6 5F                    1405 	ld	e, a
      0004B7 56                    1406 	ld	d, (hl)
      0004B8 13                    1407 	inc	de
      0004B9 13                    1408 	inc	de
      0004BA 79                    1409 	ld	a, c
      0004BB 3C                    1410 	inc	a
      0004BC 3C                    1411 	inc	a
      0004BD 3C                    1412 	inc	a
      0004BE 12                    1413 	ld	(de), a
                           0004BF  1414 	C$Sprite_Engine.c$149$1_0$130	= .
                                   1415 	.globl	C$Sprite_Engine.c$149$1_0$130
                                   1416 ;src/engine/Sprite_Engine.c:149: meta->tile0->x = meta->x;
      0004BF F8 12                 1417 	ldhl	sp,	#18
      0004C1 2A                    1418 	ld	a, (hl+)
      0004C2 5F                    1419 	ld	e, a
      0004C3 56                    1420 	ld	d, (hl)
      0004C4 13                    1421 	inc	de
      0004C5 13                    1422 	inc	de
      0004C6 13                    1423 	inc	de
      0004C7 F8 10                 1424 	ldhl	sp,	#16
      0004C9 7E                    1425 	ld	a, (hl)
      0004CA 12                    1426 	ld	(de), a
                           0004CB  1427 	C$Sprite_Engine.c$150$1_0$130	= .
                                   1428 	.globl	C$Sprite_Engine.c$150$1_0$130
                                   1429 ;src/engine/Sprite_Engine.c:150: meta->tile1->x = meta->x + SPRITE_SIZE;
      0004CB F8 14                 1430 	ldhl	sp,	#20
      0004CD 2A                    1431 	ld	a, (hl+)
      0004CE 5F                    1432 	ld	e, a
      0004CF 56                    1433 	ld	d, (hl)
      0004D0 13                    1434 	inc	de
      0004D1 13                    1435 	inc	de
      0004D2 13                    1436 	inc	de
      0004D3 F8 10                 1437 	ldhl	sp,	#16
      0004D5 7E                    1438 	ld	a, (hl)
      0004D6 C6 08                 1439 	add	a, #0x08
      0004D8 4F                    1440 	ld	c, a
      0004D9 12                    1441 	ld	(de), a
                           0004DA  1442 	C$Sprite_Engine.c$151$1_0$130	= .
                                   1443 	.globl	C$Sprite_Engine.c$151$1_0$130
                                   1444 ;src/engine/Sprite_Engine.c:151: meta->tile2->x = meta->x;
      0004DA F8 16                 1445 	ldhl	sp,	#22
      0004DC 2A                    1446 	ld	a, (hl+)
      0004DD 5F                    1447 	ld	e, a
      0004DE 56                    1448 	ld	d, (hl)
      0004DF 13                    1449 	inc	de
      0004E0 13                    1450 	inc	de
      0004E1 13                    1451 	inc	de
      0004E2 F8 10                 1452 	ldhl	sp,	#16
      0004E4 7E                    1453 	ld	a, (hl)
      0004E5 12                    1454 	ld	(de), a
                           0004E6  1455 	C$Sprite_Engine.c$152$1_0$130	= .
                                   1456 	.globl	C$Sprite_Engine.c$152$1_0$130
                                   1457 ;src/engine/Sprite_Engine.c:152: meta->tile3->x = meta->x + SPRITE_SIZE;
      0004E6 F8 18                 1458 	ldhl	sp,	#24
      0004E8 2A                    1459 	ld	a, (hl+)
      0004E9 5F                    1460 	ld	e, a
      0004EA 56                    1461 	ld	d, (hl)
      0004EB 13                    1462 	inc	de
      0004EC 13                    1463 	inc	de
      0004ED 13                    1464 	inc	de
      0004EE 79                    1465 	ld	a, c
      0004EF 12                    1466 	ld	(de), a
                           0004F0  1467 	C$Sprite_Engine.c$155$1_0$130	= .
                                   1468 	.globl	C$Sprite_Engine.c$155$1_0$130
                                   1469 ;src/engine/Sprite_Engine.c:155: meta->tile0->y = meta->y;
      0004F0 F8 12                 1470 	ldhl	sp,#18
      0004F2 2A                    1471 	ld	a, (hl+)
      0004F3 5F                    1472 	ld	e, a
      0004F4 56                    1473 	ld	d, (hl)
      0004F5 21 04 00              1474 	ld	hl, #0x0004
      0004F8 19                    1475 	add	hl, de
      0004F9 5D                    1476 	ld	e, l
      0004FA 54                    1477 	ld	d, h
      0004FB F8 11                 1478 	ldhl	sp,	#17
      0004FD 7E                    1479 	ld	a, (hl)
      0004FE 12                    1480 	ld	(de), a
                           0004FF  1481 	C$Sprite_Engine.c$156$1_0$130	= .
                                   1482 	.globl	C$Sprite_Engine.c$156$1_0$130
                                   1483 ;src/engine/Sprite_Engine.c:156: meta->tile1->y = meta->y;
      0004FF F8 14                 1484 	ldhl	sp,#20
      000501 2A                    1485 	ld	a, (hl+)
      000502 5F                    1486 	ld	e, a
      000503 56                    1487 	ld	d, (hl)
      000504 21 04 00              1488 	ld	hl, #0x0004
      000507 19                    1489 	add	hl, de
      000508 5D                    1490 	ld	e, l
      000509 54                    1491 	ld	d, h
      00050A F8 11                 1492 	ldhl	sp,	#17
      00050C 7E                    1493 	ld	a, (hl)
      00050D 12                    1494 	ld	(de), a
                           00050E  1495 	C$Sprite_Engine.c$157$1_0$130	= .
                                   1496 	.globl	C$Sprite_Engine.c$157$1_0$130
                                   1497 ;src/engine/Sprite_Engine.c:157: meta->tile2->y = meta->y + SPRITE_SIZE;
      00050E F8 16                 1498 	ldhl	sp,#22
      000510 2A                    1499 	ld	a, (hl+)
      000511 5F                    1500 	ld	e, a
      000512 56                    1501 	ld	d, (hl)
      000513 21 04 00              1502 	ld	hl, #0x0004
      000516 19                    1503 	add	hl, de
      000517 5D                    1504 	ld	e, l
      000518 54                    1505 	ld	d, h
      000519 F8 11                 1506 	ldhl	sp,	#17
      00051B 7E                    1507 	ld	a, (hl)
      00051C C6 08                 1508 	add	a, #0x08
      00051E 4F                    1509 	ld	c, a
      00051F 12                    1510 	ld	(de), a
                           000520  1511 	C$Sprite_Engine.c$158$1_0$130	= .
                                   1512 	.globl	C$Sprite_Engine.c$158$1_0$130
                                   1513 ;src/engine/Sprite_Engine.c:158: meta->tile3->y = meta->y + SPRITE_SIZE;
      000520 F8 18                 1514 	ldhl	sp,#24
      000522 2A                    1515 	ld	a, (hl+)
      000523 5F                    1516 	ld	e, a
      000524 56                    1517 	ld	d, (hl)
      000525 21 04 00              1518 	ld	hl, #0x0004
      000528 19                    1519 	add	hl, de
      000529 5D                    1520 	ld	e, l
      00052A 54                    1521 	ld	d, h
      00052B 79                    1522 	ld	a, c
      00052C 12                    1523 	ld	(de), a
                           00052D  1524 	C$Sprite_Engine.c$161$1_0$130	= .
                                   1525 	.globl	C$Sprite_Engine.c$161$1_0$130
                                   1526 ;src/engine/Sprite_Engine.c:161: init_sprite_old(meta->tile0, meta->tile0->id, meta->tile0->init_tile, meta->tile0->max_tile, meta->tile0->x, meta->tile0->y, DEFAULT_SCROLL_SPEED);
      00052D 3E 01                 1527 	ld	a, #0x01
      00052F F5                    1528 	push	af
      000530 33                    1529 	inc	sp
      000531 F8 12                 1530 	ldhl	sp,	#18
      000533 3A                    1531 	ld	a, (hl-)
      000534 57                    1532 	ld	d, a
      000535 5E                    1533 	ld	e, (hl)
      000536 D5                    1534 	push	de
      000537 C5                    1535 	push	bc
      000538 33                    1536 	inc	sp
      000539 F8 0B                 1537 	ldhl	sp,	#11
      00053B 7E                    1538 	ld	a, (hl)
      00053C F5                    1539 	push	af
      00053D 33                    1540 	inc	sp
      00053E F8 11                 1541 	ldhl	sp,	#17
      000540 7E                    1542 	ld	a, (hl)
      000541 F5                    1543 	push	af
      000542 33                    1544 	inc	sp
      000543 F8 18                 1545 	ldhl	sp,	#24
      000545 2A                    1546 	ld	a, (hl+)
      000546 5F                    1547 	ld	e, a
      000547 56                    1548 	ld	d, (hl)
      000548 D5                    1549 	push	de
      000549 CDr12r00              1550 	call	_init_sprite_old
      00054C E8 08                 1551 	add	sp, #8
                           00054E  1552 	C$Sprite_Engine.c$162$1_0$130	= .
                                   1553 	.globl	C$Sprite_Engine.c$162$1_0$130
                                   1554 ;src/engine/Sprite_Engine.c:162: init_sprite_old(meta->tile1, meta->tile1->id, meta->tile1->init_tile, meta->tile1->max_tile, meta->tile1->x, meta->tile1->y, DEFAULT_SCROLL_SPEED);
      00054E D1                    1555 	pop	de
      00054F D5                    1556 	push	de
      000550 1A                    1557 	ld	a, (de)
      000551 4F                    1558 	ld	c, a
      000552 13                    1559 	inc	de
      000553 1A                    1560 	ld	a, (de)
      000554 47                    1561 	ld	b, a
      000555 21 04 00              1562 	ld	hl, #0x0004
      000558 09                    1563 	add	hl, bc
      000559 7E                    1564 	ld	a, (hl)
      00055A F8 06                 1565 	ldhl	sp,	#6
      00055C 77                    1566 	ld	(hl), a
      00055D 59                    1567 	ld	e, c
      00055E 50                    1568 	ld	d, b
      00055F 13                    1569 	inc	de
      000560 13                    1570 	inc	de
      000561 13                    1571 	inc	de
      000562 1A                    1572 	ld	a, (de)
      000563 F8 07                 1573 	ldhl	sp,	#7
      000565 77                    1574 	ld	(hl), a
      000566 69                    1575 	ld	l, c
                                   1576 ;	spillPairReg hl
                                   1577 ;	spillPairReg hl
      000567 60                    1578 	ld	h, b
                                   1579 ;	spillPairReg hl
                                   1580 ;	spillPairReg hl
      000568 23                    1581 	inc	hl
      000569 23                    1582 	inc	hl
      00056A 56                    1583 	ld	d, (hl)
      00056B 69                    1584 	ld	l, c
                                   1585 ;	spillPairReg hl
                                   1586 ;	spillPairReg hl
      00056C 60                    1587 	ld	h, b
                                   1588 ;	spillPairReg hl
                                   1589 ;	spillPairReg hl
      00056D 23                    1590 	inc	hl
      00056E 5E                    1591 	ld	e, (hl)
      00056F 0A                    1592 	ld	a, (bc)
      000570 26 01                 1593 	ld	h, #0x01
                                   1594 ;	spillPairReg hl
                                   1595 ;	spillPairReg hl
      000572 E5                    1596 	push	hl
      000573 33                    1597 	inc	sp
      000574 F8 07                 1598 	ldhl	sp,	#7
      000576 66                    1599 	ld	h, (hl)
                                   1600 ;	spillPairReg hl
                                   1601 ;	spillPairReg hl
      000577 E5                    1602 	push	hl
      000578 33                    1603 	inc	sp
      000579 F8 09                 1604 	ldhl	sp,	#9
      00057B 66                    1605 	ld	h, (hl)
                                   1606 ;	spillPairReg hl
                                   1607 ;	spillPairReg hl
      00057C E5                    1608 	push	hl
      00057D 33                    1609 	inc	sp
      00057E D5                    1610 	push	de
      00057F 33                    1611 	inc	sp
      000580 63                    1612 	ld	h, e
                                   1613 ;	spillPairReg hl
                                   1614 ;	spillPairReg hl
      000581 E5                    1615 	push	hl
      000582 33                    1616 	inc	sp
      000583 F5                    1617 	push	af
      000584 33                    1618 	inc	sp
      000585 C5                    1619 	push	bc
      000586 CDr12r00              1620 	call	_init_sprite_old
      000589 E8 08                 1621 	add	sp, #8
                           00058B  1622 	C$Sprite_Engine.c$163$1_0$130	= .
                                   1623 	.globl	C$Sprite_Engine.c$163$1_0$130
                                   1624 ;src/engine/Sprite_Engine.c:163: init_sprite_old(meta->tile2, meta->tile2->id, meta->tile2->init_tile, meta->tile2->max_tile, meta->tile2->x, meta->tile2->y, DEFAULT_SCROLL_SPEED);
      00058B F8 02                 1625 	ldhl	sp,#2
      00058D 2A                    1626 	ld	a, (hl+)
      00058E 5F                    1627 	ld	e, a
      00058F 56                    1628 	ld	d, (hl)
      000590 1A                    1629 	ld	a, (de)
      000591 4F                    1630 	ld	c, a
      000592 13                    1631 	inc	de
      000593 1A                    1632 	ld	a, (de)
      000594 47                    1633 	ld	b, a
      000595 21 04 00              1634 	ld	hl, #0x0004
      000598 09                    1635 	add	hl, bc
      000599 7E                    1636 	ld	a, (hl)
      00059A F8 06                 1637 	ldhl	sp,	#6
      00059C 77                    1638 	ld	(hl), a
      00059D 59                    1639 	ld	e, c
      00059E 50                    1640 	ld	d, b
      00059F 13                    1641 	inc	de
      0005A0 13                    1642 	inc	de
      0005A1 13                    1643 	inc	de
      0005A2 1A                    1644 	ld	a, (de)
      0005A3 F8 07                 1645 	ldhl	sp,	#7
      0005A5 77                    1646 	ld	(hl), a
      0005A6 69                    1647 	ld	l, c
                                   1648 ;	spillPairReg hl
                                   1649 ;	spillPairReg hl
      0005A7 60                    1650 	ld	h, b
                                   1651 ;	spillPairReg hl
                                   1652 ;	spillPairReg hl
      0005A8 23                    1653 	inc	hl
      0005A9 23                    1654 	inc	hl
      0005AA 56                    1655 	ld	d, (hl)
      0005AB 69                    1656 	ld	l, c
                                   1657 ;	spillPairReg hl
                                   1658 ;	spillPairReg hl
      0005AC 60                    1659 	ld	h, b
                                   1660 ;	spillPairReg hl
                                   1661 ;	spillPairReg hl
      0005AD 23                    1662 	inc	hl
      0005AE 5E                    1663 	ld	e, (hl)
      0005AF 0A                    1664 	ld	a, (bc)
      0005B0 26 01                 1665 	ld	h, #0x01
                                   1666 ;	spillPairReg hl
                                   1667 ;	spillPairReg hl
      0005B2 E5                    1668 	push	hl
      0005B3 33                    1669 	inc	sp
      0005B4 F8 07                 1670 	ldhl	sp,	#7
      0005B6 66                    1671 	ld	h, (hl)
                                   1672 ;	spillPairReg hl
                                   1673 ;	spillPairReg hl
      0005B7 E5                    1674 	push	hl
      0005B8 33                    1675 	inc	sp
      0005B9 F8 09                 1676 	ldhl	sp,	#9
      0005BB 66                    1677 	ld	h, (hl)
                                   1678 ;	spillPairReg hl
                                   1679 ;	spillPairReg hl
      0005BC E5                    1680 	push	hl
      0005BD 33                    1681 	inc	sp
      0005BE D5                    1682 	push	de
      0005BF 33                    1683 	inc	sp
      0005C0 63                    1684 	ld	h, e
                                   1685 ;	spillPairReg hl
                                   1686 ;	spillPairReg hl
      0005C1 E5                    1687 	push	hl
      0005C2 33                    1688 	inc	sp
      0005C3 F5                    1689 	push	af
      0005C4 33                    1690 	inc	sp
      0005C5 C5                    1691 	push	bc
      0005C6 CDr12r00              1692 	call	_init_sprite_old
      0005C9 E8 08                 1693 	add	sp, #8
                           0005CB  1694 	C$Sprite_Engine.c$164$1_0$130	= .
                                   1695 	.globl	C$Sprite_Engine.c$164$1_0$130
                                   1696 ;src/engine/Sprite_Engine.c:164: init_sprite_old(meta->tile3, meta->tile3->id, meta->tile3->init_tile, meta->tile3->max_tile, meta->tile3->x, meta->tile3->y, DEFAULT_SCROLL_SPEED);
      0005CB F8 04                 1697 	ldhl	sp,#4
      0005CD 2A                    1698 	ld	a, (hl+)
      0005CE 5F                    1699 	ld	e, a
      0005CF 56                    1700 	ld	d, (hl)
      0005D0 1A                    1701 	ld	a, (de)
      0005D1 4F                    1702 	ld	c, a
      0005D2 13                    1703 	inc	de
      0005D3 1A                    1704 	ld	a, (de)
      0005D4 47                    1705 	ld	b, a
      0005D5 21 04 00              1706 	ld	hl, #0x0004
      0005D8 09                    1707 	add	hl, bc
      0005D9 7E                    1708 	ld	a, (hl)
      0005DA F8 06                 1709 	ldhl	sp,	#6
      0005DC 77                    1710 	ld	(hl), a
      0005DD 59                    1711 	ld	e, c
      0005DE 50                    1712 	ld	d, b
      0005DF 13                    1713 	inc	de
      0005E0 13                    1714 	inc	de
      0005E1 13                    1715 	inc	de
      0005E2 1A                    1716 	ld	a, (de)
      0005E3 F8 07                 1717 	ldhl	sp,	#7
      0005E5 77                    1718 	ld	(hl), a
      0005E6 69                    1719 	ld	l, c
                                   1720 ;	spillPairReg hl
                                   1721 ;	spillPairReg hl
      0005E7 60                    1722 	ld	h, b
                                   1723 ;	spillPairReg hl
                                   1724 ;	spillPairReg hl
      0005E8 23                    1725 	inc	hl
      0005E9 23                    1726 	inc	hl
      0005EA 56                    1727 	ld	d, (hl)
      0005EB 69                    1728 	ld	l, c
                                   1729 ;	spillPairReg hl
                                   1730 ;	spillPairReg hl
      0005EC 60                    1731 	ld	h, b
                                   1732 ;	spillPairReg hl
                                   1733 ;	spillPairReg hl
      0005ED 23                    1734 	inc	hl
      0005EE 5E                    1735 	ld	e, (hl)
      0005EF 0A                    1736 	ld	a, (bc)
      0005F0 26 01                 1737 	ld	h, #0x01
                                   1738 ;	spillPairReg hl
                                   1739 ;	spillPairReg hl
      0005F2 E5                    1740 	push	hl
      0005F3 33                    1741 	inc	sp
      0005F4 F8 07                 1742 	ldhl	sp,	#7
      0005F6 66                    1743 	ld	h, (hl)
                                   1744 ;	spillPairReg hl
                                   1745 ;	spillPairReg hl
      0005F7 E5                    1746 	push	hl
      0005F8 33                    1747 	inc	sp
      0005F9 F8 09                 1748 	ldhl	sp,	#9
      0005FB 66                    1749 	ld	h, (hl)
                                   1750 ;	spillPairReg hl
                                   1751 ;	spillPairReg hl
      0005FC E5                    1752 	push	hl
      0005FD 33                    1753 	inc	sp
      0005FE D5                    1754 	push	de
      0005FF 33                    1755 	inc	sp
      000600 63                    1756 	ld	h, e
                                   1757 ;	spillPairReg hl
                                   1758 ;	spillPairReg hl
      000601 E5                    1759 	push	hl
      000602 33                    1760 	inc	sp
      000603 F5                    1761 	push	af
      000604 33                    1762 	inc	sp
      000605 C5                    1763 	push	bc
      000606 CDr12r00              1764 	call	_init_sprite_old
                           000609  1765 	C$Sprite_Engine.c$166$1_0$130	= .
                                   1766 	.globl	C$Sprite_Engine.c$166$1_0$130
                                   1767 ;src/engine/Sprite_Engine.c:166: }
      000609 E8 10                 1768 	add	sp, #16
                           00060B  1769 	C$Sprite_Engine.c$166$1_0$130	= .
                                   1770 	.globl	C$Sprite_Engine.c$166$1_0$130
                           00060B  1771 	XG$init_16x16_meta_old$0$0	= .
                                   1772 	.globl	XG$init_16x16_meta_old$0$0
      00060B C9                    1773 	ret
                           00060C  1774 	G$set_sprite_position$0$0	= .
                                   1775 	.globl	G$set_sprite_position$0$0
                           00060C  1776 	C$Sprite_Engine.c$168$1_0$132	= .
                                   1777 	.globl	C$Sprite_Engine.c$168$1_0$132
                                   1778 ;src/engine/Sprite_Engine.c:168: void set_sprite_position(Sprite* sprite, UINT8 x, UINT8 y)
                                   1779 ;	---------------------------------
                                   1780 ; Function set_sprite_position
                                   1781 ; ---------------------------------
      00060C                       1782 _set_sprite_position::
                           00060C  1783 	C$Sprite_Engine.c$170$1_0$132	= .
                                   1784 	.globl	C$Sprite_Engine.c$170$1_0$132
                                   1785 ;src/engine/Sprite_Engine.c:170: sprite->x = x;
      00060C F8 02                 1786 	ldhl	sp,	#2
      00060E 2A                    1787 	ld	a, (hl+)
      00060F 4F                    1788 	ld	c, a
      000610 2A                    1789 	ld	a, (hl+)
      000611 47                    1790 	ld	b, a
      000612 59                    1791 	ld	e, c
      000613 50                    1792 	ld	d, b
      000614 13                    1793 	inc	de
      000615 13                    1794 	inc	de
      000616 13                    1795 	inc	de
                           000617  1796 	C$Sprite_Engine.c$171$1_0$132	= .
                                   1797 	.globl	C$Sprite_Engine.c$171$1_0$132
                                   1798 ;src/engine/Sprite_Engine.c:171: sprite->y = y;
      000617 2A                    1799 	ld	a, (hl+)
      000618 12                    1800 	ld	(de), a
      000619 03                    1801 	inc	bc
      00061A 03                    1802 	inc	bc
      00061B 03                    1803 	inc	bc
      00061C 03                    1804 	inc	bc
      00061D 7E                    1805 	ld	a, (hl)
      00061E 02                    1806 	ld	(bc), a
                           00061F  1807 	C$Sprite_Engine.c$172$1_0$132	= .
                                   1808 	.globl	C$Sprite_Engine.c$172$1_0$132
                                   1809 ;src/engine/Sprite_Engine.c:172: }
                           00061F  1810 	C$Sprite_Engine.c$172$1_0$132	= .
                                   1811 	.globl	C$Sprite_Engine.c$172$1_0$132
                           00061F  1812 	XG$set_sprite_position$0$0	= .
                                   1813 	.globl	XG$set_sprite_position$0$0
      00061F C9                    1814 	ret
                           000620  1815 	G$set_sprite_velocity$0$0	= .
                                   1816 	.globl	G$set_sprite_velocity$0$0
                           000620  1817 	C$Sprite_Engine.c$174$1_0$134	= .
                                   1818 	.globl	C$Sprite_Engine.c$174$1_0$134
                                   1819 ;src/engine/Sprite_Engine.c:174: void set_sprite_velocity(Sprite* sprite, UINT8 velocity)
                                   1820 ;	---------------------------------
                                   1821 ; Function set_sprite_velocity
                                   1822 ; ---------------------------------
      000620                       1823 _set_sprite_velocity::
                           000620  1824 	C$Sprite_Engine.c$176$1_0$134	= .
                                   1825 	.globl	C$Sprite_Engine.c$176$1_0$134
                                   1826 ;src/engine/Sprite_Engine.c:176: sprite->velocity = velocity;
      000620 F8 02                 1827 	ldhl	sp,	#2
      000622 2A                    1828 	ld	a, (hl+)
      000623 4F                    1829 	ld	c, a
      000624 2A                    1830 	ld	a, (hl+)
      000625 47                    1831 	ld	b, a
      000626 03                    1832 	inc	bc
      000627 03                    1833 	inc	bc
      000628 03                    1834 	inc	bc
      000629 03                    1835 	inc	bc
      00062A 03                    1836 	inc	bc
      00062B 7E                    1837 	ld	a, (hl)
      00062C 02                    1838 	ld	(bc), a
                           00062D  1839 	C$Sprite_Engine.c$177$1_0$134	= .
                                   1840 	.globl	C$Sprite_Engine.c$177$1_0$134
                                   1841 ;src/engine/Sprite_Engine.c:177: }
                           00062D  1842 	C$Sprite_Engine.c$177$1_0$134	= .
                                   1843 	.globl	C$Sprite_Engine.c$177$1_0$134
                           00062D  1844 	XG$set_sprite_velocity$0$0	= .
                                   1845 	.globl	XG$set_sprite_velocity$0$0
      00062D C9                    1846 	ret
                           00062E  1847 	G$set_sprite_visibility$0$0	= .
                                   1848 	.globl	G$set_sprite_visibility$0$0
                           00062E  1849 	C$Sprite_Engine.c$179$1_0$136	= .
                                   1850 	.globl	C$Sprite_Engine.c$179$1_0$136
                                   1851 ;src/engine/Sprite_Engine.c:179: void set_sprite_visibility(Sprite* sprite, UINT8 is_visible)
                                   1852 ;	---------------------------------
                                   1853 ; Function set_sprite_visibility
                                   1854 ; ---------------------------------
      00062E                       1855 _set_sprite_visibility::
                           00062E  1856 	C$Sprite_Engine.c$181$1_0$136	= .
                                   1857 	.globl	C$Sprite_Engine.c$181$1_0$136
                                   1858 ;src/engine/Sprite_Engine.c:181: sprite->is_visible = is_visible;
      00062E F8 02                 1859 	ldhl	sp,	#2
      000630 2A                    1860 	ld	a, (hl+)
      000631 46                    1861 	ld	b, (hl)
      000632 C6 06                 1862 	add	a, #0x06
      000634 4F                    1863 	ld	c, a
      000635 30 01                 1864 	jr	NC, 00103$
      000637 04                    1865 	inc	b
      000638                       1866 00103$:
      000638 23                    1867 	inc	hl
      000639 7E                    1868 	ld	a, (hl)
      00063A 02                    1869 	ld	(bc), a
                           00063B  1870 	C$Sprite_Engine.c$182$1_0$136	= .
                                   1871 	.globl	C$Sprite_Engine.c$182$1_0$136
                                   1872 ;src/engine/Sprite_Engine.c:182: }
                           00063B  1873 	C$Sprite_Engine.c$182$1_0$136	= .
                                   1874 	.globl	C$Sprite_Engine.c$182$1_0$136
                           00063B  1875 	XG$set_sprite_visibility$0$0	= .
                                   1876 	.globl	XG$set_sprite_visibility$0$0
      00063B C9                    1877 	ret
                           00063C  1878 	G$set_sprite_hitbox$0$0	= .
                                   1879 	.globl	G$set_sprite_hitbox$0$0
                           00063C  1880 	C$Sprite_Engine.c$184$1_0$138	= .
                                   1881 	.globl	C$Sprite_Engine.c$184$1_0$138
                                   1882 ;src/engine/Sprite_Engine.c:184: void set_sprite_hitbox(Sprite* sprite, UINT8 has_hitbox)
                                   1883 ;	---------------------------------
                                   1884 ; Function set_sprite_hitbox
                                   1885 ; ---------------------------------
      00063C                       1886 _set_sprite_hitbox::
                           00063C  1887 	C$Sprite_Engine.c$186$1_0$138	= .
                                   1888 	.globl	C$Sprite_Engine.c$186$1_0$138
                                   1889 ;src/engine/Sprite_Engine.c:186: sprite->has_hitbox = has_hitbox;
      00063C F8 02                 1890 	ldhl	sp,	#2
      00063E 2A                    1891 	ld	a, (hl+)
      00063F 46                    1892 	ld	b, (hl)
      000640 C6 07                 1893 	add	a, #0x07
      000642 4F                    1894 	ld	c, a
      000643 30 01                 1895 	jr	NC, 00103$
      000645 04                    1896 	inc	b
      000646                       1897 00103$:
      000646 23                    1898 	inc	hl
      000647 7E                    1899 	ld	a, (hl)
      000648 02                    1900 	ld	(bc), a
                           000649  1901 	C$Sprite_Engine.c$187$1_0$138	= .
                                   1902 	.globl	C$Sprite_Engine.c$187$1_0$138
                                   1903 ;src/engine/Sprite_Engine.c:187: }
                           000649  1904 	C$Sprite_Engine.c$187$1_0$138	= .
                                   1905 	.globl	C$Sprite_Engine.c$187$1_0$138
                           000649  1906 	XG$set_sprite_hitbox$0$0	= .
                                   1907 	.globl	XG$set_sprite_hitbox$0$0
      000649 C9                    1908 	ret
                           00064A  1909 	G$set_16x16_meta_position$0$0	= .
                                   1910 	.globl	G$set_16x16_meta_position$0$0
                           00064A  1911 	C$Sprite_Engine.c$189$1_0$140	= .
                                   1912 	.globl	C$Sprite_Engine.c$189$1_0$140
                                   1913 ;src/engine/Sprite_Engine.c:189: void set_16x16_meta_position(MetaSprite16x16* meta, UINT8 x, UINT8 y)
                                   1914 ;	---------------------------------
                                   1915 ; Function set_16x16_meta_position
                                   1916 ; ---------------------------------
      00064A                       1917 _set_16x16_meta_position::
      00064A E8 F7                 1918 	add	sp, #-9
                           00064C  1919 	C$Sprite_Engine.c$191$1_0$140	= .
                                   1920 	.globl	C$Sprite_Engine.c$191$1_0$140
                                   1921 ;src/engine/Sprite_Engine.c:191: meta->x = x;
      00064C F8 0B                 1922 	ldhl	sp,	#11
      00064E 2A                    1923 	ld	a, (hl+)
      00064F 4F                    1924 	ld	c, a
      000650 46                    1925 	ld	b, (hl)
      000651 21 04 00              1926 	ld	hl, #0x0004
      000654 09                    1927 	add	hl, bc
      000655 5D                    1928 	ld	e, l
      000656 54                    1929 	ld	d, h
      000657 F8 0D                 1930 	ldhl	sp,	#13
      000659 7E                    1931 	ld	a, (hl)
      00065A 12                    1932 	ld	(de), a
                           00065B  1933 	C$Sprite_Engine.c$192$1_0$140	= .
                                   1934 	.globl	C$Sprite_Engine.c$192$1_0$140
                                   1935 ;src/engine/Sprite_Engine.c:192: meta->y = y;
      00065B 21 05 00              1936 	ld	hl, #0x0005
      00065E 09                    1937 	add	hl, bc
      00065F 5D                    1938 	ld	e, l
      000660 54                    1939 	ld	d, h
      000661 F8 0E                 1940 	ldhl	sp,	#14
      000663 7E                    1941 	ld	a, (hl)
      000664 12                    1942 	ld	(de), a
                           000665  1943 	C$Sprite_Engine.c$195$1_0$140	= .
                                   1944 	.globl	C$Sprite_Engine.c$195$1_0$140
                                   1945 ;src/engine/Sprite_Engine.c:195: meta->tile0->x = meta->x;
      000665 21 09 00              1946 	ld	hl, #0x0009
      000668 09                    1947 	add	hl, bc
      000669 33                    1948 	inc	sp
      00066A 33                    1949 	inc	sp
      00066B 5D                    1950 	ld	e, l
      00066C 54                    1951 	ld	d, h
      00066D D5                    1952 	push	de
      00066E 1A                    1953 	ld	a, (de)
      00066F 6F                    1954 	ld	l, a
                                   1955 ;	spillPairReg hl
                                   1956 ;	spillPairReg hl
      000670 13                    1957 	inc	de
      000671 1A                    1958 	ld	a, (de)
      000672 67                    1959 	ld	h, a
                                   1960 ;	spillPairReg hl
                                   1961 ;	spillPairReg hl
      000673 23                    1962 	inc	hl
      000674 23                    1963 	inc	hl
      000675 23                    1964 	inc	hl
      000676 5D                    1965 	ld	e, l
      000677 54                    1966 	ld	d, h
      000678 F8 0D                 1967 	ldhl	sp,	#13
      00067A 7E                    1968 	ld	a, (hl)
      00067B 12                    1969 	ld	(de), a
                           00067C  1970 	C$Sprite_Engine.c$196$1_0$140	= .
                                   1971 	.globl	C$Sprite_Engine.c$196$1_0$140
                                   1972 ;src/engine/Sprite_Engine.c:196: meta->tile1->x = meta->x + SPRITE_SIZE;
      00067C 21 0B 00              1973 	ld	hl, #0x000b
      00067F 09                    1974 	add	hl, bc
      000680 E5                    1975 	push	hl
      000681 7D                    1976 	ld	a, l
      000682 F8 04                 1977 	ldhl	sp,	#4
      000684 77                    1978 	ld	(hl), a
      000685 E1                    1979 	pop	hl
      000686 7C                    1980 	ld	a, h
      000687 F8 03                 1981 	ldhl	sp,	#3
      000689 32                    1982 	ld	(hl-), a
      00068A 2A                    1983 	ld	a, (hl+)
      00068B 5F                    1984 	ld	e, a
      00068C 56                    1985 	ld	d, (hl)
      00068D 1A                    1986 	ld	a, (de)
      00068E 6F                    1987 	ld	l, a
                                   1988 ;	spillPairReg hl
                                   1989 ;	spillPairReg hl
      00068F 13                    1990 	inc	de
      000690 1A                    1991 	ld	a, (de)
      000691 67                    1992 	ld	h, a
                                   1993 ;	spillPairReg hl
                                   1994 ;	spillPairReg hl
      000692 23                    1995 	inc	hl
      000693 23                    1996 	inc	hl
      000694 23                    1997 	inc	hl
      000695 5D                    1998 	ld	e, l
      000696 54                    1999 	ld	d, h
      000697 F8 0D                 2000 	ldhl	sp,	#13
      000699 7E                    2001 	ld	a, (hl)
      00069A C6 08                 2002 	add	a, #0x08
      00069C F8 04                 2003 	ldhl	sp,	#4
      00069E 77                    2004 	ld	(hl), a
      00069F 12                    2005 	ld	(de), a
                           0006A0  2006 	C$Sprite_Engine.c$197$1_0$140	= .
                                   2007 	.globl	C$Sprite_Engine.c$197$1_0$140
                                   2008 ;src/engine/Sprite_Engine.c:197: meta->tile2->x = meta->x;
      0006A0 21 0D 00              2009 	ld	hl, #0x000d
      0006A3 09                    2010 	add	hl, bc
      0006A4 E5                    2011 	push	hl
      0006A5 7D                    2012 	ld	a, l
      0006A6 F8 07                 2013 	ldhl	sp,	#7
      0006A8 77                    2014 	ld	(hl), a
      0006A9 E1                    2015 	pop	hl
      0006AA 7C                    2016 	ld	a, h
      0006AB F8 06                 2017 	ldhl	sp,	#6
      0006AD 32                    2018 	ld	(hl-), a
      0006AE 2A                    2019 	ld	a, (hl+)
      0006AF 5F                    2020 	ld	e, a
      0006B0 56                    2021 	ld	d, (hl)
      0006B1 1A                    2022 	ld	a, (de)
      0006B2 6F                    2023 	ld	l, a
                                   2024 ;	spillPairReg hl
                                   2025 ;	spillPairReg hl
      0006B3 13                    2026 	inc	de
      0006B4 1A                    2027 	ld	a, (de)
      0006B5 67                    2028 	ld	h, a
                                   2029 ;	spillPairReg hl
                                   2030 ;	spillPairReg hl
      0006B6 23                    2031 	inc	hl
      0006B7 23                    2032 	inc	hl
      0006B8 23                    2033 	inc	hl
      0006B9 5D                    2034 	ld	e, l
      0006BA 54                    2035 	ld	d, h
      0006BB F8 0D                 2036 	ldhl	sp,	#13
      0006BD 7E                    2037 	ld	a, (hl)
      0006BE 12                    2038 	ld	(de), a
                           0006BF  2039 	C$Sprite_Engine.c$198$1_0$140	= .
                                   2040 	.globl	C$Sprite_Engine.c$198$1_0$140
                                   2041 ;src/engine/Sprite_Engine.c:198: meta->tile3->x = meta->x + SPRITE_SIZE;
      0006BF 21 0F 00              2042 	ld	hl, #0x000f
      0006C2 09                    2043 	add	hl, bc
      0006C3 E5                    2044 	push	hl
      0006C4 7D                    2045 	ld	a, l
      0006C5 F8 09                 2046 	ldhl	sp,	#9
      0006C7 77                    2047 	ld	(hl), a
      0006C8 E1                    2048 	pop	hl
      0006C9 7C                    2049 	ld	a, h
      0006CA F8 08                 2050 	ldhl	sp,	#8
      0006CC 32                    2051 	ld	(hl-), a
      0006CD 2A                    2052 	ld	a, (hl+)
      0006CE 5F                    2053 	ld	e, a
      0006CF 56                    2054 	ld	d, (hl)
      0006D0 1A                    2055 	ld	a, (de)
      0006D1 4F                    2056 	ld	c, a
      0006D2 13                    2057 	inc	de
      0006D3 1A                    2058 	ld	a, (de)
      0006D4 47                    2059 	ld	b, a
      0006D5 03                    2060 	inc	bc
      0006D6 03                    2061 	inc	bc
      0006D7 03                    2062 	inc	bc
      0006D8 F8 04                 2063 	ldhl	sp,	#4
      0006DA 7E                    2064 	ld	a, (hl)
      0006DB 02                    2065 	ld	(bc), a
                           0006DC  2066 	C$Sprite_Engine.c$201$1_0$140	= .
                                   2067 	.globl	C$Sprite_Engine.c$201$1_0$140
                                   2068 ;src/engine/Sprite_Engine.c:201: meta->tile0->y = meta->y;
      0006DC D1                    2069 	pop	de
      0006DD D5                    2070 	push	de
      0006DE 1A                    2071 	ld	a, (de)
      0006DF 4F                    2072 	ld	c, a
      0006E0 13                    2073 	inc	de
      0006E1 1A                    2074 	ld	a, (de)
      0006E2 47                    2075 	ld	b, a
      0006E3 03                    2076 	inc	bc
      0006E4 03                    2077 	inc	bc
      0006E5 03                    2078 	inc	bc
      0006E6 03                    2079 	inc	bc
      0006E7 F8 0E                 2080 	ldhl	sp,	#14
      0006E9 7E                    2081 	ld	a, (hl)
      0006EA 02                    2082 	ld	(bc), a
                           0006EB  2083 	C$Sprite_Engine.c$202$1_0$140	= .
                                   2084 	.globl	C$Sprite_Engine.c$202$1_0$140
                                   2085 ;src/engine/Sprite_Engine.c:202: meta->tile1->y = meta->y;
      0006EB F8 02                 2086 	ldhl	sp,#2
      0006ED 2A                    2087 	ld	a, (hl+)
      0006EE 5F                    2088 	ld	e, a
      0006EF 56                    2089 	ld	d, (hl)
      0006F0 1A                    2090 	ld	a, (de)
      0006F1 4F                    2091 	ld	c, a
      0006F2 13                    2092 	inc	de
      0006F3 1A                    2093 	ld	a, (de)
      0006F4 47                    2094 	ld	b, a
      0006F5 03                    2095 	inc	bc
      0006F6 03                    2096 	inc	bc
      0006F7 03                    2097 	inc	bc
      0006F8 03                    2098 	inc	bc
      0006F9 F8 0E                 2099 	ldhl	sp,	#14
      0006FB 7E                    2100 	ld	a, (hl)
      0006FC 02                    2101 	ld	(bc), a
                           0006FD  2102 	C$Sprite_Engine.c$203$1_0$140	= .
                                   2103 	.globl	C$Sprite_Engine.c$203$1_0$140
                                   2104 ;src/engine/Sprite_Engine.c:203: meta->tile2->y = meta->y + SPRITE_SIZE;
      0006FD F8 05                 2105 	ldhl	sp,#5
      0006FF 2A                    2106 	ld	a, (hl+)
      000700 5F                    2107 	ld	e, a
      000701 56                    2108 	ld	d, (hl)
      000702 1A                    2109 	ld	a, (de)
      000703 4F                    2110 	ld	c, a
      000704 13                    2111 	inc	de
      000705 1A                    2112 	ld	a, (de)
      000706 47                    2113 	ld	b, a
      000707 21 04 00              2114 	ld	hl, #0x0004
      00070A 09                    2115 	add	hl, bc
      00070B 5D                    2116 	ld	e, l
      00070C 54                    2117 	ld	d, h
      00070D F8 0E                 2118 	ldhl	sp,	#14
      00070F 7E                    2119 	ld	a, (hl)
      000710 C6 08                 2120 	add	a, #0x08
      000712 4F                    2121 	ld	c, a
      000713 12                    2122 	ld	(de), a
                           000714  2123 	C$Sprite_Engine.c$204$1_0$140	= .
                                   2124 	.globl	C$Sprite_Engine.c$204$1_0$140
                                   2125 ;src/engine/Sprite_Engine.c:204: meta->tile3->y = meta->y + SPRITE_SIZE;
      000714 F8 07                 2126 	ldhl	sp,#7
      000716 2A                    2127 	ld	a, (hl+)
      000717 5F                    2128 	ld	e, a
      000718 56                    2129 	ld	d, (hl)
      000719 1A                    2130 	ld	a, (de)
      00071A 6F                    2131 	ld	l, a
                                   2132 ;	spillPairReg hl
                                   2133 ;	spillPairReg hl
      00071B 13                    2134 	inc	de
      00071C 1A                    2135 	ld	a, (de)
      00071D 67                    2136 	ld	h, a
                                   2137 ;	spillPairReg hl
                                   2138 ;	spillPairReg hl
      00071E 23                    2139 	inc	hl
      00071F 23                    2140 	inc	hl
      000720 23                    2141 	inc	hl
      000721 23                    2142 	inc	hl
      000722 71                    2143 	ld	(hl), c
                           000723  2144 	C$Sprite_Engine.c$205$1_0$140	= .
                                   2145 	.globl	C$Sprite_Engine.c$205$1_0$140
                                   2146 ;src/engine/Sprite_Engine.c:205: }
      000723 E8 09                 2147 	add	sp, #9
                           000725  2148 	C$Sprite_Engine.c$205$1_0$140	= .
                                   2149 	.globl	C$Sprite_Engine.c$205$1_0$140
                           000725  2150 	XG$set_16x16_meta_position$0$0	= .
                                   2151 	.globl	XG$set_16x16_meta_position$0$0
      000725 C9                    2152 	ret
                           000726  2153 	G$set_16x16_meta_velocity$0$0	= .
                                   2154 	.globl	G$set_16x16_meta_velocity$0$0
                           000726  2155 	C$Sprite_Engine.c$207$1_0$142	= .
                                   2156 	.globl	C$Sprite_Engine.c$207$1_0$142
                                   2157 ;src/engine/Sprite_Engine.c:207: void set_16x16_meta_velocity(MetaSprite16x16* meta, UINT8 velocity)
                                   2158 ;	---------------------------------
                                   2159 ; Function set_16x16_meta_velocity
                                   2160 ; ---------------------------------
      000726                       2161 _set_16x16_meta_velocity::
                           000726  2162 	C$Sprite_Engine.c$209$1_0$142	= .
                                   2163 	.globl	C$Sprite_Engine.c$209$1_0$142
                                   2164 ;src/engine/Sprite_Engine.c:209: meta->velocity = velocity;
      000726 F8 02                 2165 	ldhl	sp,	#2
      000728 2A                    2166 	ld	a, (hl+)
      000729 4F                    2167 	ld	c, a
      00072A 46                    2168 	ld	b, (hl)
      00072B 21 06 00              2169 	ld	hl, #0x0006
      00072E 09                    2170 	add	hl, bc
      00072F 5D                    2171 	ld	e, l
      000730 54                    2172 	ld	d, h
      000731 F8 04                 2173 	ldhl	sp,	#4
      000733 7E                    2174 	ld	a, (hl)
      000734 12                    2175 	ld	(de), a
                           000735  2176 	C$Sprite_Engine.c$212$1_0$142	= .
                                   2177 	.globl	C$Sprite_Engine.c$212$1_0$142
                                   2178 ;src/engine/Sprite_Engine.c:212: meta->tile0->velocity = meta->velocity;
      000735 21 09 00              2179 	ld	hl, #0x0009
      000738 09                    2180 	add	hl, bc
      000739 2A                    2181 	ld	a, (hl+)
      00073A 6E                    2182 	ld	l, (hl)
                                   2183 ;	spillPairReg hl
      00073B C6 05                 2184 	add	a, #0x05
      00073D 5F                    2185 	ld	e, a
      00073E 7D                    2186 	ld	a, l
      00073F CE 00                 2187 	adc	a, #0x00
      000741 57                    2188 	ld	d, a
      000742 F8 04                 2189 	ldhl	sp,	#4
      000744 7E                    2190 	ld	a, (hl)
      000745 12                    2191 	ld	(de), a
                           000746  2192 	C$Sprite_Engine.c$213$1_0$142	= .
                                   2193 	.globl	C$Sprite_Engine.c$213$1_0$142
                                   2194 ;src/engine/Sprite_Engine.c:213: meta->tile1->velocity = meta->velocity;
      000746 21 0B 00              2195 	ld	hl, #0x000b
      000749 09                    2196 	add	hl, bc
      00074A 2A                    2197 	ld	a, (hl+)
      00074B 6E                    2198 	ld	l, (hl)
                                   2199 ;	spillPairReg hl
      00074C C6 05                 2200 	add	a, #0x05
      00074E 5F                    2201 	ld	e, a
      00074F 7D                    2202 	ld	a, l
      000750 CE 00                 2203 	adc	a, #0x00
      000752 57                    2204 	ld	d, a
      000753 F8 04                 2205 	ldhl	sp,	#4
      000755 7E                    2206 	ld	a, (hl)
      000756 12                    2207 	ld	(de), a
                           000757  2208 	C$Sprite_Engine.c$214$1_0$142	= .
                                   2209 	.globl	C$Sprite_Engine.c$214$1_0$142
                                   2210 ;src/engine/Sprite_Engine.c:214: meta->tile2->velocity = meta->velocity;
      000757 21 0D 00              2211 	ld	hl, #0x000d
      00075A 09                    2212 	add	hl, bc
      00075B 2A                    2213 	ld	a, (hl+)
      00075C 6E                    2214 	ld	l, (hl)
                                   2215 ;	spillPairReg hl
      00075D C6 05                 2216 	add	a, #0x05
      00075F 5F                    2217 	ld	e, a
      000760 7D                    2218 	ld	a, l
      000761 CE 00                 2219 	adc	a, #0x00
      000763 57                    2220 	ld	d, a
      000764 F8 04                 2221 	ldhl	sp,	#4
      000766 7E                    2222 	ld	a, (hl)
      000767 12                    2223 	ld	(de), a
                           000768  2224 	C$Sprite_Engine.c$215$1_0$142	= .
                                   2225 	.globl	C$Sprite_Engine.c$215$1_0$142
                                   2226 ;src/engine/Sprite_Engine.c:215: meta->tile3->velocity = meta->velocity;
      000768 21 0F 00              2227 	ld	hl, #0x000f
      00076B 09                    2228 	add	hl, bc
      00076C 2A                    2229 	ld	a, (hl+)
      00076D 4F                    2230 	ld	c, a
      00076E 46                    2231 	ld	b, (hl)
      00076F 03                    2232 	inc	bc
      000770 03                    2233 	inc	bc
      000771 03                    2234 	inc	bc
      000772 03                    2235 	inc	bc
      000773 03                    2236 	inc	bc
      000774 F8 04                 2237 	ldhl	sp,	#4
      000776 7E                    2238 	ld	a, (hl)
      000777 02                    2239 	ld	(bc), a
                           000778  2240 	C$Sprite_Engine.c$216$1_0$142	= .
                                   2241 	.globl	C$Sprite_Engine.c$216$1_0$142
                                   2242 ;src/engine/Sprite_Engine.c:216: }
                           000778  2243 	C$Sprite_Engine.c$216$1_0$142	= .
                                   2244 	.globl	C$Sprite_Engine.c$216$1_0$142
                           000778  2245 	XG$set_16x16_meta_velocity$0$0	= .
                                   2246 	.globl	XG$set_16x16_meta_velocity$0$0
      000778 C9                    2247 	ret
                           000779  2248 	G$set_16x16_meta_visibility$0$0	= .
                                   2249 	.globl	G$set_16x16_meta_visibility$0$0
                           000779  2250 	C$Sprite_Engine.c$218$1_0$144	= .
                                   2251 	.globl	C$Sprite_Engine.c$218$1_0$144
                                   2252 ;src/engine/Sprite_Engine.c:218: void set_16x16_meta_visibility(MetaSprite16x16* meta, UINT8 is_visible)
                                   2253 ;	---------------------------------
                                   2254 ; Function set_16x16_meta_visibility
                                   2255 ; ---------------------------------
      000779                       2256 _set_16x16_meta_visibility::
                           000779  2257 	C$Sprite_Engine.c$220$1_0$144	= .
                                   2258 	.globl	C$Sprite_Engine.c$220$1_0$144
                                   2259 ;src/engine/Sprite_Engine.c:220: meta->is_visible = is_visible;
      000779 F8 02                 2260 	ldhl	sp,	#2
      00077B 2A                    2261 	ld	a, (hl+)
      00077C 4F                    2262 	ld	c, a
      00077D 46                    2263 	ld	b, (hl)
      00077E 21 07 00              2264 	ld	hl, #0x0007
      000781 09                    2265 	add	hl, bc
      000782 5D                    2266 	ld	e, l
      000783 54                    2267 	ld	d, h
      000784 F8 04                 2268 	ldhl	sp,	#4
      000786 7E                    2269 	ld	a, (hl)
      000787 12                    2270 	ld	(de), a
                           000788  2271 	C$Sprite_Engine.c$223$1_0$144	= .
                                   2272 	.globl	C$Sprite_Engine.c$223$1_0$144
                                   2273 ;src/engine/Sprite_Engine.c:223: meta->tile0->is_visible = meta->is_visible;
      000788 21 09 00              2274 	ld	hl, #0x0009
      00078B 09                    2275 	add	hl, bc
      00078C 2A                    2276 	ld	a, (hl+)
      00078D 6E                    2277 	ld	l, (hl)
                                   2278 ;	spillPairReg hl
      00078E C6 06                 2279 	add	a, #0x06
      000790 5F                    2280 	ld	e, a
      000791 7D                    2281 	ld	a, l
      000792 CE 00                 2282 	adc	a, #0x00
      000794 57                    2283 	ld	d, a
      000795 F8 04                 2284 	ldhl	sp,	#4
      000797 7E                    2285 	ld	a, (hl)
      000798 12                    2286 	ld	(de), a
                           000799  2287 	C$Sprite_Engine.c$224$1_0$144	= .
                                   2288 	.globl	C$Sprite_Engine.c$224$1_0$144
                                   2289 ;src/engine/Sprite_Engine.c:224: meta->tile1->is_visible = meta->is_visible;
      000799 21 0B 00              2290 	ld	hl, #0x000b
      00079C 09                    2291 	add	hl, bc
      00079D 2A                    2292 	ld	a, (hl+)
      00079E 6E                    2293 	ld	l, (hl)
                                   2294 ;	spillPairReg hl
      00079F C6 06                 2295 	add	a, #0x06
      0007A1 5F                    2296 	ld	e, a
      0007A2 7D                    2297 	ld	a, l
      0007A3 CE 00                 2298 	adc	a, #0x00
      0007A5 57                    2299 	ld	d, a
      0007A6 F8 04                 2300 	ldhl	sp,	#4
      0007A8 7E                    2301 	ld	a, (hl)
      0007A9 12                    2302 	ld	(de), a
                           0007AA  2303 	C$Sprite_Engine.c$225$1_0$144	= .
                                   2304 	.globl	C$Sprite_Engine.c$225$1_0$144
                                   2305 ;src/engine/Sprite_Engine.c:225: meta->tile2->is_visible = meta->is_visible;
      0007AA 21 0D 00              2306 	ld	hl, #0x000d
      0007AD 09                    2307 	add	hl, bc
      0007AE 2A                    2308 	ld	a, (hl+)
      0007AF 6E                    2309 	ld	l, (hl)
                                   2310 ;	spillPairReg hl
      0007B0 C6 06                 2311 	add	a, #0x06
      0007B2 5F                    2312 	ld	e, a
      0007B3 7D                    2313 	ld	a, l
      0007B4 CE 00                 2314 	adc	a, #0x00
      0007B6 57                    2315 	ld	d, a
      0007B7 F8 04                 2316 	ldhl	sp,	#4
      0007B9 7E                    2317 	ld	a, (hl)
      0007BA 12                    2318 	ld	(de), a
                           0007BB  2319 	C$Sprite_Engine.c$226$1_0$144	= .
                                   2320 	.globl	C$Sprite_Engine.c$226$1_0$144
                                   2321 ;src/engine/Sprite_Engine.c:226: meta->tile3->is_visible = meta->is_visible;
      0007BB 21 0F 00              2322 	ld	hl, #0x000f
      0007BE 09                    2323 	add	hl, bc
      0007BF 2A                    2324 	ld	a, (hl+)
      0007C0 46                    2325 	ld	b, (hl)
      0007C1 C6 06                 2326 	add	a, #0x06
      0007C3 4F                    2327 	ld	c, a
      0007C4 30 01                 2328 	jr	NC, 00103$
      0007C6 04                    2329 	inc	b
      0007C7                       2330 00103$:
      0007C7 F8 04                 2331 	ldhl	sp,	#4
      0007C9 7E                    2332 	ld	a, (hl)
      0007CA 02                    2333 	ld	(bc), a
                           0007CB  2334 	C$Sprite_Engine.c$227$1_0$144	= .
                                   2335 	.globl	C$Sprite_Engine.c$227$1_0$144
                                   2336 ;src/engine/Sprite_Engine.c:227: }
                           0007CB  2337 	C$Sprite_Engine.c$227$1_0$144	= .
                                   2338 	.globl	C$Sprite_Engine.c$227$1_0$144
                           0007CB  2339 	XG$set_16x16_meta_visibility$0$0	= .
                                   2340 	.globl	XG$set_16x16_meta_visibility$0$0
      0007CB C9                    2341 	ret
                           0007CC  2342 	G$set_16x16_meta_hitbox$0$0	= .
                                   2343 	.globl	G$set_16x16_meta_hitbox$0$0
                           0007CC  2344 	C$Sprite_Engine.c$229$1_0$146	= .
                                   2345 	.globl	C$Sprite_Engine.c$229$1_0$146
                                   2346 ;src/engine/Sprite_Engine.c:229: void set_16x16_meta_hitbox(MetaSprite16x16* meta, UINT8 has_hitbox)
                                   2347 ;	---------------------------------
                                   2348 ; Function set_16x16_meta_hitbox
                                   2349 ; ---------------------------------
      0007CC                       2350 _set_16x16_meta_hitbox::
                           0007CC  2351 	C$Sprite_Engine.c$231$1_0$146	= .
                                   2352 	.globl	C$Sprite_Engine.c$231$1_0$146
                                   2353 ;src/engine/Sprite_Engine.c:231: meta->has_hitbox = has_hitbox;
      0007CC F8 02                 2354 	ldhl	sp,	#2
      0007CE 2A                    2355 	ld	a, (hl+)
      0007CF 4F                    2356 	ld	c, a
      0007D0 46                    2357 	ld	b, (hl)
      0007D1 21 08 00              2358 	ld	hl, #0x0008
      0007D4 09                    2359 	add	hl, bc
      0007D5 5D                    2360 	ld	e, l
      0007D6 54                    2361 	ld	d, h
      0007D7 F8 04                 2362 	ldhl	sp,	#4
      0007D9 7E                    2363 	ld	a, (hl)
      0007DA 12                    2364 	ld	(de), a
                           0007DB  2365 	C$Sprite_Engine.c$234$1_0$146	= .
                                   2366 	.globl	C$Sprite_Engine.c$234$1_0$146
                                   2367 ;src/engine/Sprite_Engine.c:234: meta->tile0->has_hitbox = meta->has_hitbox;
      0007DB 21 09 00              2368 	ld	hl, #0x0009
      0007DE 09                    2369 	add	hl, bc
      0007DF 2A                    2370 	ld	a, (hl+)
      0007E0 6E                    2371 	ld	l, (hl)
                                   2372 ;	spillPairReg hl
      0007E1 C6 07                 2373 	add	a, #0x07
      0007E3 5F                    2374 	ld	e, a
      0007E4 7D                    2375 	ld	a, l
      0007E5 CE 00                 2376 	adc	a, #0x00
      0007E7 57                    2377 	ld	d, a
      0007E8 F8 04                 2378 	ldhl	sp,	#4
      0007EA 7E                    2379 	ld	a, (hl)
      0007EB 12                    2380 	ld	(de), a
                           0007EC  2381 	C$Sprite_Engine.c$235$1_0$146	= .
                                   2382 	.globl	C$Sprite_Engine.c$235$1_0$146
                                   2383 ;src/engine/Sprite_Engine.c:235: meta->tile1->has_hitbox = meta->has_hitbox;
      0007EC 21 0B 00              2384 	ld	hl, #0x000b
      0007EF 09                    2385 	add	hl, bc
      0007F0 2A                    2386 	ld	a, (hl+)
      0007F1 6E                    2387 	ld	l, (hl)
                                   2388 ;	spillPairReg hl
      0007F2 C6 07                 2389 	add	a, #0x07
      0007F4 5F                    2390 	ld	e, a
      0007F5 7D                    2391 	ld	a, l
      0007F6 CE 00                 2392 	adc	a, #0x00
      0007F8 57                    2393 	ld	d, a
      0007F9 F8 04                 2394 	ldhl	sp,	#4
      0007FB 7E                    2395 	ld	a, (hl)
      0007FC 12                    2396 	ld	(de), a
                           0007FD  2397 	C$Sprite_Engine.c$236$1_0$146	= .
                                   2398 	.globl	C$Sprite_Engine.c$236$1_0$146
                                   2399 ;src/engine/Sprite_Engine.c:236: meta->tile2->has_hitbox = meta->has_hitbox;
      0007FD 21 0D 00              2400 	ld	hl, #0x000d
      000800 09                    2401 	add	hl, bc
      000801 2A                    2402 	ld	a, (hl+)
      000802 6E                    2403 	ld	l, (hl)
                                   2404 ;	spillPairReg hl
      000803 C6 07                 2405 	add	a, #0x07
      000805 5F                    2406 	ld	e, a
      000806 7D                    2407 	ld	a, l
      000807 CE 00                 2408 	adc	a, #0x00
      000809 57                    2409 	ld	d, a
      00080A F8 04                 2410 	ldhl	sp,	#4
      00080C 7E                    2411 	ld	a, (hl)
      00080D 12                    2412 	ld	(de), a
                           00080E  2413 	C$Sprite_Engine.c$237$1_0$146	= .
                                   2414 	.globl	C$Sprite_Engine.c$237$1_0$146
                                   2415 ;src/engine/Sprite_Engine.c:237: meta->tile3->has_hitbox = meta->has_hitbox;
      00080E 21 0F 00              2416 	ld	hl, #0x000f
      000811 09                    2417 	add	hl, bc
      000812 2A                    2418 	ld	a, (hl+)
      000813 46                    2419 	ld	b, (hl)
      000814 C6 07                 2420 	add	a, #0x07
      000816 4F                    2421 	ld	c, a
      000817 30 01                 2422 	jr	NC, 00103$
      000819 04                    2423 	inc	b
      00081A                       2424 00103$:
      00081A F8 04                 2425 	ldhl	sp,	#4
      00081C 7E                    2426 	ld	a, (hl)
      00081D 02                    2427 	ld	(bc), a
                           00081E  2428 	C$Sprite_Engine.c$238$1_0$146	= .
                                   2429 	.globl	C$Sprite_Engine.c$238$1_0$146
                                   2430 ;src/engine/Sprite_Engine.c:238: }
                           00081E  2431 	C$Sprite_Engine.c$238$1_0$146	= .
                                   2432 	.globl	C$Sprite_Engine.c$238$1_0$146
                           00081E  2433 	XG$set_16x16_meta_hitbox$0$0	= .
                                   2434 	.globl	XG$set_16x16_meta_hitbox$0$0
      00081E C9                    2435 	ret
                           00081F  2436 	G$setup_sprite$0$0	= .
                                   2437 	.globl	G$setup_sprite$0$0
                           00081F  2438 	C$Sprite_Engine.c$240$1_0$148	= .
                                   2439 	.globl	C$Sprite_Engine.c$240$1_0$148
                                   2440 ;src/engine/Sprite_Engine.c:240: void setup_sprite(Sprite *s, UINT8 pixels[]) 
                                   2441 ;	---------------------------------
                                   2442 ; Function setup_sprite
                                   2443 ; ---------------------------------
      00081F                       2444 _setup_sprite::
      00081F 3B                    2445 	dec	sp
                           000820  2446 	C$Sprite_Engine.c$242$1_0$148	= .
                                   2447 	.globl	C$Sprite_Engine.c$242$1_0$148
                                   2448 ;src/engine/Sprite_Engine.c:242: set_sprite_data(s->init_tile, s->max_tile, pixels);    // (initial tile, final tile, sprite char array)
      000820 F8 03                 2449 	ldhl	sp,	#3
      000822 2A                    2450 	ld	a, (hl+)
      000823 5F                    2451 	ld	e, a
      000824 56                    2452 	ld	d, (hl)
      000825 4B                    2453 	ld	c, e
      000826 42                    2454 	ld	b, d
      000827 03                    2455 	inc	bc
      000828 03                    2456 	inc	bc
      000829 0A                    2457 	ld	a, (bc)
      00082A F8 00                 2458 	ldhl	sp,	#0
      00082C 77                    2459 	ld	(hl), a
      00082D 4B                    2460 	ld	c, e
      00082E 42                    2461 	ld	b, d
      00082F 03                    2462 	inc	bc
      000830 0A                    2463 	ld	a, (bc)
      000831 D5                    2464 	push	de
      000832 F5                    2465 	push	af
      000833 F8 09                 2466 	ldhl	sp,	#9
      000835 2A                    2467 	ld	a, (hl+)
      000836 66                    2468 	ld	h, (hl)
                                   2469 ;	spillPairReg hl
                                   2470 ;	spillPairReg hl
      000837 6F                    2471 	ld	l, a
                                   2472 ;	spillPairReg hl
                                   2473 ;	spillPairReg hl
      000838 F1                    2474 	pop	af
      000839 E5                    2475 	push	hl
      00083A F8 04                 2476 	ldhl	sp,	#4
      00083C 66                    2477 	ld	h, (hl)
                                   2478 ;	spillPairReg hl
                                   2479 ;	spillPairReg hl
      00083D E5                    2480 	push	hl
      00083E 33                    2481 	inc	sp
      00083F F5                    2482 	push	af
      000840 33                    2483 	inc	sp
      000841 CDr00r00              2484 	call	_set_sprite_data
      000844 E8 04                 2485 	add	sp, #4
      000846 D1                    2486 	pop	de
                                   2487 ;src/engine/Sprite_Engine.c:243: set_sprite_tile(s->id, s->init_tile);                  // (sprite index, tile), gives sprite its id
      000847 0A                    2488 	ld	a, (bc)
      000848 4F                    2489 	ld	c, a
      000849 1A                    2490 	ld	a, (de)
                                   2491 ;C:/gbdk/include/gb/gb.h:1447: shadow_OAM[nb].tile=tile;
      00084A 6F                    2492 	ld	l, a
                                   2493 ;	spillPairReg hl
                                   2494 ;	spillPairReg hl
      00084B 26 00                 2495 	ld	h, #0x00
                                   2496 ;	spillPairReg hl
                                   2497 ;	spillPairReg hl
      00084D 29                    2498 	add	hl, hl
      00084E 29                    2499 	add	hl, hl
      00084F D5                    2500 	push	de
      000850 11r00r00              2501 	ld	de, #_shadow_OAM
      000853 19                    2502 	add	hl, de
      000854 23                    2503 	inc	hl
      000855 23                    2504 	inc	hl
      000856 D1                    2505 	pop	de
      000857 71                    2506 	ld	(hl), c
                                   2507 ;src/engine/Sprite_Engine.c:244: move_sprite(0, s->x, s->y);                            // (sprite index, x, y)
      000858 21 04 00              2508 	ld	hl, #0x0004
      00085B 19                    2509 	add	hl, de
      00085C 46                    2510 	ld	b, (hl)
      00085D 13                    2511 	inc	de
      00085E 13                    2512 	inc	de
      00085F 13                    2513 	inc	de
      000860 1A                    2514 	ld	a, (de)
      000861 4F                    2515 	ld	c, a
                                   2516 ;C:/gbdk/include/gb/gb.h:1520: OAM_item_t * itm = &shadow_OAM[nb];
      000862 21r00r00              2517 	ld	hl, #_shadow_OAM
                                   2518 ;C:/gbdk/include/gb/gb.h:1521: itm->y=y, itm->x=x;
      000865 78                    2519 	ld	a, b
      000866 22                    2520 	ld	(hl+), a
      000867 71                    2521 	ld	(hl), c
                           000868  2522 	C$Sprite_Engine.c$244$3_0$148	= .
                                   2523 	.globl	C$Sprite_Engine.c$244$3_0$148
                                   2524 ;src/engine/Sprite_Engine.c:244: move_sprite(0, s->x, s->y);                            // (sprite index, x, y)
                           000868  2525 	C$Sprite_Engine.c$245$3_0$148	= .
                                   2526 	.globl	C$Sprite_Engine.c$245$3_0$148
                                   2527 ;src/engine/Sprite_Engine.c:245: }
      000868 33                    2528 	inc	sp
                           000869  2529 	C$Sprite_Engine.c$245$3_0$148	= .
                                   2530 	.globl	C$Sprite_Engine.c$245$3_0$148
                           000869  2531 	XG$setup_sprite$0$0	= .
                                   2532 	.globl	XG$setup_sprite$0$0
      000869 C9                    2533 	ret
                           00086A  2534 	G$setup_16x16_meta$0$0	= .
                                   2535 	.globl	G$setup_16x16_meta$0$0
                           00086A  2536 	C$Sprite_Engine.c$247$3_0$156	= .
                                   2537 	.globl	C$Sprite_Engine.c$247$3_0$156
                                   2538 ;src/engine/Sprite_Engine.c:247: void setup_16x16_meta(MetaSprite16x16 *meta, UINT8 pixels[]) 
                                   2539 ;	---------------------------------
                                   2540 ; Function setup_16x16_meta
                                   2541 ; ---------------------------------
      00086A                       2542 _setup_16x16_meta::
      00086A E8 F8                 2543 	add	sp, #-8
                           00086C  2544 	C$Sprite_Engine.c$250$1_0$156	= .
                                   2545 	.globl	C$Sprite_Engine.c$250$1_0$156
                                   2546 ;src/engine/Sprite_Engine.c:250: set_sprite_data(meta->init_tile, meta->max_tile, pixels);    // (initial tile, final tile, sprite char array)
      00086C F8 0A                 2547 	ldhl	sp,	#10
      00086E 2A                    2548 	ld	a, (hl+)
      00086F 4F                    2549 	ld	c, a
      000870 46                    2550 	ld	b, (hl)
      000871 69                    2551 	ld	l, c
                                   2552 ;	spillPairReg hl
                                   2553 ;	spillPairReg hl
      000872 60                    2554 	ld	h, b
                                   2555 ;	spillPairReg hl
                                   2556 ;	spillPairReg hl
      000873 23                    2557 	inc	hl
      000874 23                    2558 	inc	hl
      000875 56                    2559 	ld	d, (hl)
      000876 69                    2560 	ld	l, c
                                   2561 ;	spillPairReg hl
                                   2562 ;	spillPairReg hl
      000877 60                    2563 	ld	h, b
                                   2564 ;	spillPairReg hl
                                   2565 ;	spillPairReg hl
      000878 23                    2566 	inc	hl
      000879 5E                    2567 	ld	e, (hl)
      00087A F8 0C                 2568 	ldhl	sp,	#12
      00087C 2A                    2569 	ld	a, (hl+)
      00087D 66                    2570 	ld	h, (hl)
                                   2571 ;	spillPairReg hl
                                   2572 ;	spillPairReg hl
      00087E 6F                    2573 	ld	l, a
                                   2574 ;	spillPairReg hl
                                   2575 ;	spillPairReg hl
      00087F E5                    2576 	push	hl
      000880 D5                    2577 	push	de
      000881 CDr00r00              2578 	call	_set_sprite_data
      000884 E8 04                 2579 	add	sp, #4
                                   2580 ;src/engine/Sprite_Engine.c:253: set_sprite_tile(meta->tile0->id, meta->tile0->init_tile);    // (sprite index, tile), gives sprite its id
      000886 21 09 00              2581 	ld	hl, #0x0009
      000889 09                    2582 	add	hl, bc
      00088A 33                    2583 	inc	sp
      00088B 33                    2584 	inc	sp
      00088C 5D                    2585 	ld	e, l
      00088D 54                    2586 	ld	d, h
      00088E D5                    2587 	push	de
      00088F 1A                    2588 	ld	a, (de)
      000890 6F                    2589 	ld	l, a
                                   2590 ;	spillPairReg hl
                                   2591 ;	spillPairReg hl
      000891 13                    2592 	inc	de
      000892 1A                    2593 	ld	a, (de)
      000893 67                    2594 	ld	h, a
                                   2595 ;	spillPairReg hl
                                   2596 ;	spillPairReg hl
      000894 5D                    2597 	ld	e, l
      000895 54                    2598 	ld	d, h
      000896 13                    2599 	inc	de
      000897 1A                    2600 	ld	a, (de)
      000898 5F                    2601 	ld	e, a
      000899 56                    2602 	ld	d, (hl)
                                   2603 ;C:/gbdk/include/gb/gb.h:1447: shadow_OAM[nb].tile=tile;
      00089A 6A                    2604 	ld	l, d
                                   2605 ;	spillPairReg hl
                                   2606 ;	spillPairReg hl
      00089B 26 00                 2607 	ld	h, #0x00
                                   2608 ;	spillPairReg hl
                                   2609 ;	spillPairReg hl
      00089D 29                    2610 	add	hl, hl
      00089E 29                    2611 	add	hl, hl
      00089F D5                    2612 	push	de
      0008A0 11r00r00              2613 	ld	de, #_shadow_OAM
      0008A3 19                    2614 	add	hl, de
      0008A4 23                    2615 	inc	hl
      0008A5 23                    2616 	inc	hl
      0008A6 D1                    2617 	pop	de
      0008A7 73                    2618 	ld	(hl), e
                                   2619 ;src/engine/Sprite_Engine.c:254: set_sprite_tile(meta->tile1->id, meta->tile1->init_tile);    // (sprite index, tile), gives sprite its id
      0008A8 21 0B 00              2620 	ld	hl, #0x000b
      0008AB 09                    2621 	add	hl, bc
      0008AC E5                    2622 	push	hl
      0008AD 7D                    2623 	ld	a, l
      0008AE F8 04                 2624 	ldhl	sp,	#4
      0008B0 77                    2625 	ld	(hl), a
      0008B1 E1                    2626 	pop	hl
      0008B2 7C                    2627 	ld	a, h
      0008B3 F8 03                 2628 	ldhl	sp,	#3
      0008B5 32                    2629 	ld	(hl-), a
      0008B6 2A                    2630 	ld	a, (hl+)
      0008B7 5F                    2631 	ld	e, a
      0008B8 56                    2632 	ld	d, (hl)
      0008B9 1A                    2633 	ld	a, (de)
      0008BA 6F                    2634 	ld	l, a
                                   2635 ;	spillPairReg hl
                                   2636 ;	spillPairReg hl
      0008BB 13                    2637 	inc	de
      0008BC 1A                    2638 	ld	a, (de)
      0008BD 67                    2639 	ld	h, a
                                   2640 ;	spillPairReg hl
                                   2641 ;	spillPairReg hl
      0008BE 5D                    2642 	ld	e, l
      0008BF 54                    2643 	ld	d, h
      0008C0 13                    2644 	inc	de
      0008C1 1A                    2645 	ld	a, (de)
      0008C2 5F                    2646 	ld	e, a
      0008C3 56                    2647 	ld	d, (hl)
                                   2648 ;C:/gbdk/include/gb/gb.h:1447: shadow_OAM[nb].tile=tile;
      0008C4 6A                    2649 	ld	l, d
                                   2650 ;	spillPairReg hl
                                   2651 ;	spillPairReg hl
      0008C5 26 00                 2652 	ld	h, #0x00
                                   2653 ;	spillPairReg hl
                                   2654 ;	spillPairReg hl
      0008C7 29                    2655 	add	hl, hl
      0008C8 29                    2656 	add	hl, hl
      0008C9 D5                    2657 	push	de
      0008CA 11r00r00              2658 	ld	de, #_shadow_OAM
      0008CD 19                    2659 	add	hl, de
      0008CE 23                    2660 	inc	hl
      0008CF 23                    2661 	inc	hl
      0008D0 D1                    2662 	pop	de
      0008D1 73                    2663 	ld	(hl), e
                                   2664 ;src/engine/Sprite_Engine.c:255: set_sprite_tile(meta->tile2->id, meta->tile2->init_tile);    // (sprite index, tile), gives sprite its id
      0008D2 21 0D 00              2665 	ld	hl, #0x000d
      0008D5 09                    2666 	add	hl, bc
      0008D6 E5                    2667 	push	hl
      0008D7 7D                    2668 	ld	a, l
      0008D8 F8 06                 2669 	ldhl	sp,	#6
      0008DA 77                    2670 	ld	(hl), a
      0008DB E1                    2671 	pop	hl
      0008DC 7C                    2672 	ld	a, h
      0008DD F8 05                 2673 	ldhl	sp,	#5
      0008DF 32                    2674 	ld	(hl-), a
      0008E0 2A                    2675 	ld	a, (hl+)
      0008E1 5F                    2676 	ld	e, a
      0008E2 56                    2677 	ld	d, (hl)
      0008E3 1A                    2678 	ld	a, (de)
      0008E4 6F                    2679 	ld	l, a
                                   2680 ;	spillPairReg hl
                                   2681 ;	spillPairReg hl
      0008E5 13                    2682 	inc	de
      0008E6 1A                    2683 	ld	a, (de)
      0008E7 67                    2684 	ld	h, a
                                   2685 ;	spillPairReg hl
                                   2686 ;	spillPairReg hl
      0008E8 5D                    2687 	ld	e, l
      0008E9 54                    2688 	ld	d, h
      0008EA 13                    2689 	inc	de
      0008EB 1A                    2690 	ld	a, (de)
      0008EC 5F                    2691 	ld	e, a
      0008ED 56                    2692 	ld	d, (hl)
                                   2693 ;C:/gbdk/include/gb/gb.h:1447: shadow_OAM[nb].tile=tile;
      0008EE 6A                    2694 	ld	l, d
                                   2695 ;	spillPairReg hl
                                   2696 ;	spillPairReg hl
      0008EF 26 00                 2697 	ld	h, #0x00
                                   2698 ;	spillPairReg hl
                                   2699 ;	spillPairReg hl
      0008F1 29                    2700 	add	hl, hl
      0008F2 29                    2701 	add	hl, hl
      0008F3 D5                    2702 	push	de
      0008F4 11r00r00              2703 	ld	de, #_shadow_OAM
      0008F7 19                    2704 	add	hl, de
      0008F8 23                    2705 	inc	hl
      0008F9 23                    2706 	inc	hl
      0008FA D1                    2707 	pop	de
      0008FB 73                    2708 	ld	(hl), e
                                   2709 ;src/engine/Sprite_Engine.c:256: set_sprite_tile(meta->tile3->id, meta->tile3->init_tile);    // (sprite index, tile), gives sprite its id
      0008FC 21 0F 00              2710 	ld	hl, #0x000f
      0008FF 09                    2711 	add	hl, bc
      000900 E5                    2712 	push	hl
      000901 7D                    2713 	ld	a, l
      000902 F8 08                 2714 	ldhl	sp,	#8
      000904 77                    2715 	ld	(hl), a
      000905 E1                    2716 	pop	hl
      000906 7C                    2717 	ld	a, h
      000907 F8 07                 2718 	ldhl	sp,	#7
      000909 32                    2719 	ld	(hl-), a
      00090A 2A                    2720 	ld	a, (hl+)
      00090B 5F                    2721 	ld	e, a
      00090C 56                    2722 	ld	d, (hl)
      00090D 1A                    2723 	ld	a, (de)
      00090E 6F                    2724 	ld	l, a
                                   2725 ;	spillPairReg hl
                                   2726 ;	spillPairReg hl
      00090F 13                    2727 	inc	de
      000910 1A                    2728 	ld	a, (de)
      000911 67                    2729 	ld	h, a
                                   2730 ;	spillPairReg hl
                                   2731 ;	spillPairReg hl
      000912 4D                    2732 	ld	c, l
      000913 44                    2733 	ld	b, h
      000914 03                    2734 	inc	bc
      000915 0A                    2735 	ld	a, (bc)
      000916 4F                    2736 	ld	c, a
                                   2737 ;C:/gbdk/include/gb/gb.h:1447: shadow_OAM[nb].tile=tile;
      000917 6E                    2738 	ld	l, (hl)
      000918 11r00r00              2739 	ld	de, #_shadow_OAM+0
                                   2740 ;	spillPairReg hl
                                   2741 ;	spillPairReg hl
      00091B 26 00                 2742 	ld	h, #0x00
                                   2743 ;	spillPairReg hl
                                   2744 ;	spillPairReg hl
      00091D 29                    2745 	add	hl, hl
      00091E 29                    2746 	add	hl, hl
      00091F 19                    2747 	add	hl, de
      000920 23                    2748 	inc	hl
      000921 23                    2749 	inc	hl
      000922 71                    2750 	ld	(hl), c
                                   2751 ;src/engine/Sprite_Engine.c:259: move_sprite(meta->tile0->id, meta->tile0->x, meta->tile0->y);
      000923 D1                    2752 	pop	de
      000924 D5                    2753 	push	de
      000925 1A                    2754 	ld	a, (de)
      000926 4F                    2755 	ld	c, a
      000927 13                    2756 	inc	de
      000928 1A                    2757 	ld	a, (de)
      000929 47                    2758 	ld	b, a
      00092A 21 04 00              2759 	ld	hl, #0x0004
      00092D 09                    2760 	add	hl, bc
      00092E 56                    2761 	ld	d, (hl)
      00092F 69                    2762 	ld	l, c
                                   2763 ;	spillPairReg hl
                                   2764 ;	spillPairReg hl
      000930 60                    2765 	ld	h, b
                                   2766 ;	spillPairReg hl
                                   2767 ;	spillPairReg hl
      000931 23                    2768 	inc	hl
      000932 23                    2769 	inc	hl
      000933 23                    2770 	inc	hl
      000934 5E                    2771 	ld	e, (hl)
      000935 0A                    2772 	ld	a, (bc)
                                   2773 ;C:/gbdk/include/gb/gb.h:1520: OAM_item_t * itm = &shadow_OAM[nb];
      000936 6F                    2774 	ld	l, a
                                   2775 ;	spillPairReg hl
                                   2776 ;	spillPairReg hl
      000937 26 00                 2777 	ld	h, #0x00
                                   2778 ;	spillPairReg hl
                                   2779 ;	spillPairReg hl
      000939 29                    2780 	add	hl, hl
      00093A 29                    2781 	add	hl, hl
      00093B 01r00r00              2782 	ld	bc, #_shadow_OAM
      00093E 09                    2783 	add	hl, bc
                                   2784 ;C:/gbdk/include/gb/gb.h:1521: itm->y=y, itm->x=x;
      00093F 7A                    2785 	ld	a, d
      000940 22                    2786 	ld	(hl+), a
      000941 73                    2787 	ld	(hl), e
                                   2788 ;src/engine/Sprite_Engine.c:260: move_sprite(meta->tile1->id, meta->tile1->x, meta->tile1->y);
      000942 F8 02                 2789 	ldhl	sp,#2
      000944 2A                    2790 	ld	a, (hl+)
      000945 5F                    2791 	ld	e, a
      000946 56                    2792 	ld	d, (hl)
      000947 1A                    2793 	ld	a, (de)
      000948 4F                    2794 	ld	c, a
      000949 13                    2795 	inc	de
      00094A 1A                    2796 	ld	a, (de)
      00094B 47                    2797 	ld	b, a
      00094C 21 04 00              2798 	ld	hl, #0x0004
      00094F 09                    2799 	add	hl, bc
      000950 56                    2800 	ld	d, (hl)
      000951 69                    2801 	ld	l, c
                                   2802 ;	spillPairReg hl
                                   2803 ;	spillPairReg hl
      000952 60                    2804 	ld	h, b
                                   2805 ;	spillPairReg hl
                                   2806 ;	spillPairReg hl
      000953 23                    2807 	inc	hl
      000954 23                    2808 	inc	hl
      000955 23                    2809 	inc	hl
      000956 5E                    2810 	ld	e, (hl)
      000957 0A                    2811 	ld	a, (bc)
                                   2812 ;C:/gbdk/include/gb/gb.h:1520: OAM_item_t * itm = &shadow_OAM[nb];
      000958 6F                    2813 	ld	l, a
                                   2814 ;	spillPairReg hl
                                   2815 ;	spillPairReg hl
      000959 26 00                 2816 	ld	h, #0x00
                                   2817 ;	spillPairReg hl
                                   2818 ;	spillPairReg hl
      00095B 29                    2819 	add	hl, hl
      00095C 29                    2820 	add	hl, hl
      00095D 01r00r00              2821 	ld	bc, #_shadow_OAM
      000960 09                    2822 	add	hl, bc
                                   2823 ;C:/gbdk/include/gb/gb.h:1521: itm->y=y, itm->x=x;
      000961 7A                    2824 	ld	a, d
      000962 22                    2825 	ld	(hl+), a
      000963 73                    2826 	ld	(hl), e
                                   2827 ;src/engine/Sprite_Engine.c:261: move_sprite(meta->tile2->id, meta->tile2->x, meta->tile2->y);
      000964 F8 04                 2828 	ldhl	sp,#4
      000966 2A                    2829 	ld	a, (hl+)
      000967 5F                    2830 	ld	e, a
      000968 56                    2831 	ld	d, (hl)
      000969 1A                    2832 	ld	a, (de)
      00096A 4F                    2833 	ld	c, a
      00096B 13                    2834 	inc	de
      00096C 1A                    2835 	ld	a, (de)
      00096D 47                    2836 	ld	b, a
      00096E 21 04 00              2837 	ld	hl, #0x0004
      000971 09                    2838 	add	hl, bc
      000972 56                    2839 	ld	d, (hl)
      000973 69                    2840 	ld	l, c
                                   2841 ;	spillPairReg hl
                                   2842 ;	spillPairReg hl
      000974 60                    2843 	ld	h, b
                                   2844 ;	spillPairReg hl
                                   2845 ;	spillPairReg hl
      000975 23                    2846 	inc	hl
      000976 23                    2847 	inc	hl
      000977 23                    2848 	inc	hl
      000978 5E                    2849 	ld	e, (hl)
      000979 0A                    2850 	ld	a, (bc)
                                   2851 ;C:/gbdk/include/gb/gb.h:1520: OAM_item_t * itm = &shadow_OAM[nb];
      00097A 6F                    2852 	ld	l, a
                                   2853 ;	spillPairReg hl
                                   2854 ;	spillPairReg hl
      00097B 26 00                 2855 	ld	h, #0x00
                                   2856 ;	spillPairReg hl
                                   2857 ;	spillPairReg hl
      00097D 29                    2858 	add	hl, hl
      00097E 29                    2859 	add	hl, hl
      00097F 01r00r00              2860 	ld	bc, #_shadow_OAM
      000982 09                    2861 	add	hl, bc
                                   2862 ;C:/gbdk/include/gb/gb.h:1521: itm->y=y, itm->x=x;
      000983 7A                    2863 	ld	a, d
      000984 22                    2864 	ld	(hl+), a
      000985 73                    2865 	ld	(hl), e
                                   2866 ;src/engine/Sprite_Engine.c:262: move_sprite(meta->tile3->id, meta->tile3->x, meta->tile3->y);
      000986 F8 06                 2867 	ldhl	sp,#6
      000988 2A                    2868 	ld	a, (hl+)
      000989 5F                    2869 	ld	e, a
      00098A 56                    2870 	ld	d, (hl)
      00098B 1A                    2871 	ld	a, (de)
      00098C 4F                    2872 	ld	c, a
      00098D 13                    2873 	inc	de
      00098E 1A                    2874 	ld	a, (de)
      00098F 47                    2875 	ld	b, a
      000990 21 04 00              2876 	ld	hl, #0x0004
      000993 09                    2877 	add	hl, bc
      000994 56                    2878 	ld	d, (hl)
      000995 69                    2879 	ld	l, c
                                   2880 ;	spillPairReg hl
                                   2881 ;	spillPairReg hl
      000996 60                    2882 	ld	h, b
                                   2883 ;	spillPairReg hl
                                   2884 ;	spillPairReg hl
      000997 23                    2885 	inc	hl
      000998 23                    2886 	inc	hl
      000999 23                    2887 	inc	hl
      00099A 5E                    2888 	ld	e, (hl)
      00099B 0A                    2889 	ld	a, (bc)
                                   2890 ;C:/gbdk/include/gb/gb.h:1520: OAM_item_t * itm = &shadow_OAM[nb];
      00099C 6F                    2891 	ld	l, a
                                   2892 ;	spillPairReg hl
                                   2893 ;	spillPairReg hl
      00099D 26 00                 2894 	ld	h, #0x00
                                   2895 ;	spillPairReg hl
                                   2896 ;	spillPairReg hl
      00099F 29                    2897 	add	hl, hl
      0009A0 29                    2898 	add	hl, hl
      0009A1 01r00r00              2899 	ld	bc, #_shadow_OAM
      0009A4 09                    2900 	add	hl, bc
                                   2901 ;C:/gbdk/include/gb/gb.h:1521: itm->y=y, itm->x=x;
      0009A5 7A                    2902 	ld	a, d
      0009A6 22                    2903 	ld	(hl+), a
      0009A7 73                    2904 	ld	(hl), e
                           0009A8  2905 	C$Sprite_Engine.c$264$1_0$156	= .
                                   2906 	.globl	C$Sprite_Engine.c$264$1_0$156
                                   2907 ;src/engine/Sprite_Engine.c:264: SHOW_SPRITES;
      0009A8 F0r00                 2908 	ldh	a, (_LCDC_REG + 0)
      0009AA F6 02                 2909 	or	a, #0x02
      0009AC E0r00                 2910 	ldh	(_LCDC_REG + 0), a
                           0009AE  2911 	C$Sprite_Engine.c$265$1_0$156	= .
                                   2912 	.globl	C$Sprite_Engine.c$265$1_0$156
                                   2913 ;src/engine/Sprite_Engine.c:265: wait_vbl_done();
      0009AE CDr00r00              2914 	call	_wait_vbl_done
                           0009B1  2915 	C$Sprite_Engine.c$266$1_0$156	= .
                                   2916 	.globl	C$Sprite_Engine.c$266$1_0$156
                                   2917 ;src/engine/Sprite_Engine.c:266: }
      0009B1 E8 08                 2918 	add	sp, #8
                           0009B3  2919 	C$Sprite_Engine.c$266$1_0$156	= .
                                   2920 	.globl	C$Sprite_Engine.c$266$1_0$156
                           0009B3  2921 	XG$setup_16x16_meta$0$0	= .
                                   2922 	.globl	XG$setup_16x16_meta$0$0
      0009B3 C9                    2923 	ret
                           0009B4  2924 	G$change_sprite_tile$0$0	= .
                                   2925 	.globl	G$change_sprite_tile$0$0
                           0009B4  2926 	C$Sprite_Engine.c$268$1_0$182	= .
                                   2927 	.globl	C$Sprite_Engine.c$268$1_0$182
                                   2928 ;src/engine/Sprite_Engine.c:268: void change_sprite_tile(Sprite *s) 
                                   2929 ;	---------------------------------
                                   2930 ; Function change_sprite_tile
                                   2931 ; ---------------------------------
      0009B4                       2932 _change_sprite_tile::
      0009B4 E8 FC                 2933 	add	sp, #-4
                                   2934 ;src/engine/Sprite_Engine.c:271: UINT8 current_tile = get_sprite_tile(s->id);
      0009B6 F8 06                 2935 	ldhl	sp,	#6
      0009B8 2A                    2936 	ld	a, (hl+)
      0009B9 4F                    2937 	ld	c, a
      0009BA 46                    2938 	ld	b, (hl)
      0009BB 0A                    2939 	ld	a, (bc)
      0009BC F8 00                 2940 	ldhl	sp,	#0
      0009BE 77                    2941 	ld	(hl), a
      0009BF 6E                    2942 	ld	l, (hl)
                                   2943 ;	spillPairReg hl
                                   2944 ;	spillPairReg hl
      0009C0 26 00                 2945 	ld	h, #0x00
                                   2946 ;	spillPairReg hl
                                   2947 ;	spillPairReg hl
      0009C2 29                    2948 	add	hl, hl
      0009C3 29                    2949 	add	hl, hl
      0009C4 11r00r00              2950 	ld	de, #_shadow_OAM
      0009C7 19                    2951 	add	hl, de
      0009C8 23                    2952 	inc	hl
      0009C9 23                    2953 	inc	hl
      0009CA 7E                    2954 	ld	a, (hl)
      0009CB F8 01                 2955 	ldhl	sp,	#1
      0009CD 77                    2956 	ld	(hl), a
                           0009CE  2957 	C$Sprite_Engine.c$272$1_0$182	= .
                                   2958 	.globl	C$Sprite_Engine.c$272$1_0$182
                                   2959 ;src/engine/Sprite_Engine.c:272: if (current_tile < s->max_tile - 1) {
      0009CE 03                    2960 	inc	bc
      0009CF 03                    2961 	inc	bc
      0009D0 0A                    2962 	ld	a, (bc)
      0009D1 4F                    2963 	ld	c, a
      0009D2 06 00                 2964 	ld	b, #0x00
      0009D4 0B                    2965 	dec	bc
      0009D5 F8 01                 2966 	ldhl	sp,	#1
      0009D7 2A                    2967 	ld	a, (hl+)
      0009D8 22                    2968 	ld	(hl+), a
      0009D9 AF                    2969 	xor	a, a
      0009DA 32                    2970 	ld	(hl-), a
      0009DB 2A                    2971 	ld	a, (hl+)
      0009DC 91                    2972 	sub	a, c
      0009DD 7E                    2973 	ld	a, (hl)
      0009DE 98                    2974 	sbc	a, b
      0009DF 56                    2975 	ld	d, (hl)
      0009E0 78                    2976 	ld	a, b
      0009E1 CB 7F                 2977 	bit	7,a
      0009E3 28 07                 2978 	jr	Z, 00114$
      0009E5 CB 7A                 2979 	bit	7, d
      0009E7 20 08                 2980 	jr	NZ, 00115$
      0009E9 BF                    2981 	cp	a, a
      0009EA 18 05                 2982 	jr	00115$
      0009EC                       2983 00114$:
      0009EC CB 7A                 2984 	bit	7, d
      0009EE 28 01                 2985 	jr	Z, 00115$
      0009F0 37                    2986 	scf
      0009F1                       2987 00115$:
      0009F1 30 13                 2988 	jr	NC, 00102$
                                   2989 ;src/engine/Sprite_Engine.c:273: set_sprite_tile(s->id, ++current_tile);
      0009F3 F8 01                 2990 	ldhl	sp,	#1
                                   2991 ;C:/gbdk/include/gb/gb.h:1447: shadow_OAM[nb].tile=tile;
      0009F5 3A                    2992 	ld	a, (hl-)
      0009F6 4F                    2993 	ld	c, a
      0009F7 0C                    2994 	inc	c
      0009F8 11r00r00              2995 	ld	de, #_shadow_OAM+0
      0009FB 6E                    2996 	ld	l, (hl)
      0009FC 26 00                 2997 	ld	h, #0x00
      0009FE 29                    2998 	add	hl, hl
      0009FF 29                    2999 	add	hl, hl
      000A00 19                    3000 	add	hl, de
      000A01 23                    3001 	inc	hl
      000A02 23                    3002 	inc	hl
      000A03 71                    3003 	ld	(hl), c
                           000A04  3004 	C$Sprite_Engine.c$273$1_0$182	= .
                                   3005 	.globl	C$Sprite_Engine.c$273$1_0$182
                                   3006 ;src/engine/Sprite_Engine.c:273: set_sprite_tile(s->id, ++current_tile);
      000A04 18 0F                 3007 	jr	00107$
      000A06                       3008 00102$:
                                   3009 ;C:/gbdk/include/gb/gb.h:1447: shadow_OAM[nb].tile=tile;
      000A06 F8 00                 3010 	ldhl	sp,	#0
      000A08 6E                    3011 	ld	l, (hl)
      000A09 26 00                 3012 	ld	h, #0x00
      000A0B 29                    3013 	add	hl, hl
      000A0C 29                    3014 	add	hl, hl
      000A0D 11r00r00              3015 	ld	de, #_shadow_OAM
      000A10 19                    3016 	add	hl, de
      000A11 23                    3017 	inc	hl
      000A12 23                    3018 	inc	hl
      000A13 36 00                 3019 	ld	(hl), #0x00
                           000A15  3020 	C$Sprite_Engine.c$276$1_0$182	= .
                                   3021 	.globl	C$Sprite_Engine.c$276$1_0$182
                                   3022 ;src/engine/Sprite_Engine.c:276: set_sprite_tile(s->id, 0);
      000A15                       3023 00107$:
                           000A15  3024 	C$Sprite_Engine.c$278$1_0$182	= .
                                   3025 	.globl	C$Sprite_Engine.c$278$1_0$182
                                   3026 ;src/engine/Sprite_Engine.c:278: }
      000A15 E8 04                 3027 	add	sp, #4
                           000A17  3028 	C$Sprite_Engine.c$278$1_0$182	= .
                                   3029 	.globl	C$Sprite_Engine.c$278$1_0$182
                           000A17  3030 	XG$change_sprite_tile$0$0	= .
                                   3031 	.globl	XG$change_sprite_tile$0$0
      000A17 C9                    3032 	ret
                           000A18  3033 	G$animate_sprite$0$0	= .
                                   3034 	.globl	G$animate_sprite$0$0
                           000A18  3035 	C$Sprite_Engine.c$280$1_0$196	= .
                                   3036 	.globl	C$Sprite_Engine.c$280$1_0$196
                                   3037 ;src/engine/Sprite_Engine.c:280: void animate_sprite(Sprite *s) 
                                   3038 ;	---------------------------------
                                   3039 ; Function animate_sprite
                                   3040 ; ---------------------------------
      000A18                       3041 _animate_sprite::
      000A18 E8 FC                 3042 	add	sp, #-4
                           000A1A  3043 	C$Sprite_Engine.c$282$2_0$196	= .
                                   3044 	.globl	C$Sprite_Engine.c$282$2_0$196
                                   3045 ;src/engine/Sprite_Engine.c:282: for (UINT8 tile_idx = 0; tile_idx < s->max_tile; tile_idx++) {
      000A1A F8 06                 3046 	ldhl	sp,	#6
      000A1C 2A                    3047 	ld	a, (hl+)
      000A1D 4F                    3048 	ld	c, a
      000A1E 46                    3049 	ld	b, (hl)
      000A1F 21 02 00              3050 	ld	hl, #0x0002
      000A22 09                    3051 	add	hl, bc
      000A23 33                    3052 	inc	sp
      000A24 33                    3053 	inc	sp
      000A25 E5                    3054 	push	hl
      000A26 F8 03                 3055 	ldhl	sp,	#3
      000A28 36 00                 3056 	ld	(hl), #0x00
      000A2A                       3057 00104$:
      000A2A D1                    3058 	pop	de
      000A2B D5                    3059 	push	de
      000A2C 1A                    3060 	ld	a, (de)
      000A2D F8 02                 3061 	ldhl	sp,	#2
      000A2F 22                    3062 	ld	(hl+), a
      000A30 3A                    3063 	ld	a, (hl-)
      000A31 96                    3064 	sub	a, (hl)
      000A32 30 22                 3065 	jr	NC, 00106$
                                   3066 ;src/engine/Sprite_Engine.c:283: set_sprite_tile(s->id, tile_idx);
      000A34 0A                    3067 	ld	a, (bc)
      000A35 5F                    3068 	ld	e, a
                                   3069 ;C:/gbdk/include/gb/gb.h:1447: shadow_OAM[nb].tile=tile;
      000A36 26 00                 3070 	ld	h, #0x00
                                   3071 ;	spillPairReg hl
                                   3072 ;	spillPairReg hl
      000A38 6B                    3073 	ld	l, e
      000A39 29                    3074 	add	hl, hl
      000A3A 29                    3075 	add	hl, hl
      000A3B 11r00r00              3076 	ld	de, #_shadow_OAM
      000A3E 19                    3077 	add	hl, de
      000A3F 23                    3078 	inc	hl
      000A40 23                    3079 	inc	hl
      000A41 5D                    3080 	ld	e, l
      000A42 54                    3081 	ld	d, h
      000A43 F8 03                 3082 	ldhl	sp,	#3
      000A45 7E                    3083 	ld	a, (hl)
      000A46 12                    3084 	ld	(de), a
                           000A47  3085 	C$Sprite_Engine.c$284$3_0$197	= .
                                   3086 	.globl	C$Sprite_Engine.c$284$3_0$197
                                   3087 ;src/engine/Sprite_Engine.c:284: delay(350);
      000A47 C5                    3088 	push	bc
      000A48 11 5E 01              3089 	ld	de, #0x015e
      000A4B D5                    3090 	push	de
      000A4C CDr00r00              3091 	call	_delay
      000A4F E1                    3092 	pop	hl
      000A50 C1                    3093 	pop	bc
                           000A51  3094 	C$Sprite_Engine.c$282$2_0$196	= .
                                   3095 	.globl	C$Sprite_Engine.c$282$2_0$196
                                   3096 ;src/engine/Sprite_Engine.c:282: for (UINT8 tile_idx = 0; tile_idx < s->max_tile; tile_idx++) {
      000A51 F8 03                 3097 	ldhl	sp,	#3
      000A53 34                    3098 	inc	(hl)
      000A54 18 D4                 3099 	jr	00104$
      000A56                       3100 00106$:
                           000A56  3101 	C$Sprite_Engine.c$286$2_0$196	= .
                                   3102 	.globl	C$Sprite_Engine.c$286$2_0$196
                                   3103 ;src/engine/Sprite_Engine.c:286: }
      000A56 E8 04                 3104 	add	sp, #4
                           000A58  3105 	C$Sprite_Engine.c$286$2_0$196	= .
                                   3106 	.globl	C$Sprite_Engine.c$286$2_0$196
                           000A58  3107 	XG$animate_sprite$0$0	= .
                                   3108 	.globl	XG$animate_sprite$0$0
      000A58 C9                    3109 	ret
                           000A59  3110 	G$translate_sprite$0$0	= .
                                   3111 	.globl	G$translate_sprite$0$0
                           000A59  3112 	C$Sprite_Engine.c$288$2_0$202	= .
                                   3113 	.globl	C$Sprite_Engine.c$288$2_0$202
                                   3114 ;src/engine/Sprite_Engine.c:288: void translate_sprite(Sprite *s) {
                                   3115 ;	---------------------------------
                                   3116 ; Function translate_sprite
                                   3117 ; ---------------------------------
      000A59                       3118 _translate_sprite::
                           000A59  3119 	C$Sprite_Engine.c$290$1_0$202	= .
                                   3120 	.globl	C$Sprite_Engine.c$290$1_0$202
                                   3121 ;src/engine/Sprite_Engine.c:290: switch(joypad()) {
      000A59 CDr00r00              3122 	call	_joypad
      000A5C 4B                    3123 	ld	c, e
                           000A5D  3124 	C$Sprite_Engine.c$292$1_0$202	= .
                                   3125 	.globl	C$Sprite_Engine.c$292$1_0$202
                                   3126 ;src/engine/Sprite_Engine.c:292: scroll_sprite(s->id, -1 * DEFAULT_SCROLL_SPEED, 0);
      000A5D F8 02                 3127 	ldhl	sp,	#2
      000A5F 2A                    3128 	ld	a, (hl+)
      000A60 5F                    3129 	ld	e, a
      000A61 56                    3130 	ld	d, (hl)
                           000A62  3131 	C$Sprite_Engine.c$290$1_0$202	= .
                                   3132 	.globl	C$Sprite_Engine.c$290$1_0$202
                                   3133 ;src/engine/Sprite_Engine.c:290: switch(joypad()) {
      000A62 79                    3134 	ld	a, c
      000A63 3D                    3135 	dec	a
      000A64 28 1F                 3136 	jr	Z, 00102$
      000A66 79                    3137 	ld	a,c
      000A67 FE 02                 3138 	cp	a,#0x02
      000A69 28 0A                 3139 	jr	Z, 00101$
      000A6B FE 04                 3140 	cp	a,#0x04
      000A6D 28 26                 3141 	jr	Z, 00103$
      000A6F D6 08                 3142 	sub	a, #0x08
      000A71 28 33                 3143 	jr	Z, 00104$
      000A73 18 40                 3144 	jr	00105$
                           000A75  3145 	C$Sprite_Engine.c$291$2_0$203	= .
                                   3146 	.globl	C$Sprite_Engine.c$291$2_0$203
                                   3147 ;src/engine/Sprite_Engine.c:291: case J_LEFT:
      000A75                       3148 00101$:
                                   3149 ;src/engine/Sprite_Engine.c:292: scroll_sprite(s->id, -1 * DEFAULT_SCROLL_SPEED, 0);
      000A75 1A                    3150 	ld	a, (de)
                                   3151 ;C:/gbdk/include/gb/gb.h:1536: OAM_item_t * itm = &shadow_OAM[nb];
      000A76 6F                    3152 	ld	l, a
      000A77 01r00r00              3153 	ld	bc, #_shadow_OAM+0
                                   3154 ;	spillPairReg hl
                                   3155 ;	spillPairReg hl
      000A7A 26 00                 3156 	ld	h, #0x00
                                   3157 ;	spillPairReg hl
                                   3158 ;	spillPairReg hl
      000A7C 29                    3159 	add	hl, hl
      000A7D 29                    3160 	add	hl, hl
      000A7E 09                    3161 	add	hl, bc
                                   3162 ;C:/gbdk/include/gb/gb.h:1537: itm->y+=y, itm->x+=x;
      000A7F 7E                    3163 	ld	a, (hl)
      000A80 22                    3164 	ld	(hl+), a
      000A81 35                    3165 	dec	(hl)
      000A82 7E                    3166 	ld	a, (hl)
                           000A83  3167 	C$Sprite_Engine.c$294$2_0$203	= .
                                   3168 	.globl	C$Sprite_Engine.c$294$2_0$203
                                   3169 ;src/engine/Sprite_Engine.c:294: break;
      000A83 18 30                 3170 	jr	00105$
                           000A85  3171 	C$Sprite_Engine.c$295$2_0$203	= .
                                   3172 	.globl	C$Sprite_Engine.c$295$2_0$203
                                   3173 ;src/engine/Sprite_Engine.c:295: case J_RIGHT:
      000A85                       3174 00102$:
                                   3175 ;src/engine/Sprite_Engine.c:296: scroll_sprite(s->id, 1 * DEFAULT_SCROLL_SPEED, 0);
      000A85 1A                    3176 	ld	a, (de)
                                   3177 ;C:/gbdk/include/gb/gb.h:1536: OAM_item_t * itm = &shadow_OAM[nb];
      000A86 6F                    3178 	ld	l, a
      000A87 01r00r00              3179 	ld	bc, #_shadow_OAM+0
                                   3180 ;	spillPairReg hl
                                   3181 ;	spillPairReg hl
      000A8A 26 00                 3182 	ld	h, #0x00
                                   3183 ;	spillPairReg hl
                                   3184 ;	spillPairReg hl
      000A8C 29                    3185 	add	hl, hl
      000A8D 29                    3186 	add	hl, hl
      000A8E 09                    3187 	add	hl, bc
                                   3188 ;C:/gbdk/include/gb/gb.h:1537: itm->y+=y, itm->x+=x;
      000A8F 7E                    3189 	ld	a, (hl)
      000A90 22                    3190 	ld	(hl+), a
      000A91 34                    3191 	inc	(hl)
      000A92 7E                    3192 	ld	a, (hl)
                           000A93  3193 	C$Sprite_Engine.c$298$2_0$203	= .
                                   3194 	.globl	C$Sprite_Engine.c$298$2_0$203
                                   3195 ;src/engine/Sprite_Engine.c:298: break;
      000A93 18 20                 3196 	jr	00105$
                           000A95  3197 	C$Sprite_Engine.c$299$2_0$203	= .
                                   3198 	.globl	C$Sprite_Engine.c$299$2_0$203
                                   3199 ;src/engine/Sprite_Engine.c:299: case J_UP:
      000A95                       3200 00103$:
                                   3201 ;src/engine/Sprite_Engine.c:300: scroll_sprite(s->id, 0, -1 * DEFAULT_SCROLL_SPEED);
      000A95 1A                    3202 	ld	a, (de)
                                   3203 ;C:/gbdk/include/gb/gb.h:1536: OAM_item_t * itm = &shadow_OAM[nb];
      000A96 6F                    3204 	ld	l, a
      000A97 01r00r00              3205 	ld	bc, #_shadow_OAM+0
                                   3206 ;	spillPairReg hl
                                   3207 ;	spillPairReg hl
      000A9A 26 00                 3208 	ld	h, #0x00
                                   3209 ;	spillPairReg hl
                                   3210 ;	spillPairReg hl
      000A9C 29                    3211 	add	hl, hl
      000A9D 29                    3212 	add	hl, hl
      000A9E 09                    3213 	add	hl, bc
                                   3214 ;C:/gbdk/include/gb/gb.h:1537: itm->y+=y, itm->x+=x;
      000A9F 7E                    3215 	ld	a, (hl)
      000AA0 3D                    3216 	dec	a
      000AA1 22                    3217 	ld	(hl+), a
      000AA2 7E                    3218 	ld	a, (hl)
      000AA3 77                    3219 	ld	(hl), a
                           000AA4  3220 	C$Sprite_Engine.c$302$2_0$203	= .
                                   3221 	.globl	C$Sprite_Engine.c$302$2_0$203
                                   3222 ;src/engine/Sprite_Engine.c:302: break;
      000AA4 18 0F                 3223 	jr	00105$
                           000AA6  3224 	C$Sprite_Engine.c$303$2_0$203	= .
                                   3225 	.globl	C$Sprite_Engine.c$303$2_0$203
                                   3226 ;src/engine/Sprite_Engine.c:303: case J_DOWN:
      000AA6                       3227 00104$:
                                   3228 ;src/engine/Sprite_Engine.c:304: scroll_sprite(s->id, 0, 1 * DEFAULT_SCROLL_SPEED);
      000AA6 1A                    3229 	ld	a, (de)
                                   3230 ;C:/gbdk/include/gb/gb.h:1536: OAM_item_t * itm = &shadow_OAM[nb];
      000AA7 6F                    3231 	ld	l, a
      000AA8 01r00r00              3232 	ld	bc, #_shadow_OAM+0
                                   3233 ;	spillPairReg hl
                                   3234 ;	spillPairReg hl
      000AAB 26 00                 3235 	ld	h, #0x00
                                   3236 ;	spillPairReg hl
                                   3237 ;	spillPairReg hl
      000AAD 29                    3238 	add	hl, hl
      000AAE 29                    3239 	add	hl, hl
      000AAF 09                    3240 	add	hl, bc
                                   3241 ;C:/gbdk/include/gb/gb.h:1537: itm->y+=y, itm->x+=x;
      000AB0 7E                    3242 	ld	a, (hl)
      000AB1 3C                    3243 	inc	a
      000AB2 22                    3244 	ld	(hl+), a
      000AB3 7E                    3245 	ld	a, (hl)
      000AB4 77                    3246 	ld	(hl), a
                           000AB5  3247 	C$Sprite_Engine.c$307$1_0$202	= .
                                   3248 	.globl	C$Sprite_Engine.c$307$1_0$202
                                   3249 ;src/engine/Sprite_Engine.c:307: }
      000AB5                       3250 00105$:
                           000AB5  3251 	C$Sprite_Engine.c$308$1_0$202	= .
                                   3252 	.globl	C$Sprite_Engine.c$308$1_0$202
                                   3253 ;src/engine/Sprite_Engine.c:308: cpu_wait(5000); // change to wait function
      000AB5 11 88 13              3254 	ld	de, #0x1388
      000AB8 D5                    3255 	push	de
      000AB9 CDr00r00              3256 	call	_cpu_wait
      000ABC E1                    3257 	pop	hl
                           000ABD  3258 	C$Sprite_Engine.c$309$1_0$202	= .
                                   3259 	.globl	C$Sprite_Engine.c$309$1_0$202
                                   3260 ;src/engine/Sprite_Engine.c:309: }
                           000ABD  3261 	C$Sprite_Engine.c$309$1_0$202	= .
                                   3262 	.globl	C$Sprite_Engine.c$309$1_0$202
                           000ABD  3263 	XG$translate_sprite$0$0	= .
                                   3264 	.globl	XG$translate_sprite$0$0
      000ABD C9                    3265 	ret
                           000ABE  3266 	G$translate_16x16_meta$0$0	= .
                                   3267 	.globl	G$translate_16x16_meta$0$0
                           000ABE  3268 	C$Sprite_Engine.c$311$1_0$217	= .
                                   3269 	.globl	C$Sprite_Engine.c$311$1_0$217
                                   3270 ;src/engine/Sprite_Engine.c:311: void translate_16x16_meta(MetaSprite16x16 *meta) {
                                   3271 ;	---------------------------------
                                   3272 ; Function translate_16x16_meta
                                   3273 ; ---------------------------------
      000ABE                       3274 _translate_16x16_meta::
      000ABE 3B                    3275 	dec	sp
      000ABF 3B                    3276 	dec	sp
                           000AC0  3277 	C$Sprite_Engine.c$313$1_0$217	= .
                                   3278 	.globl	C$Sprite_Engine.c$313$1_0$217
                                   3279 ;src/engine/Sprite_Engine.c:313: switch(joypad()) {
      000AC0 CDr00r00              3280 	call	_joypad
                           000AC3  3281 	C$Sprite_Engine.c$315$1_0$217	= .
                                   3282 	.globl	C$Sprite_Engine.c$315$1_0$217
                                   3283 ;src/engine/Sprite_Engine.c:315: scroll_sprite(meta->tile0->id, -1 * DEFAULT_SCROLL_SPEED, 0);
      000AC3 F8 04                 3284 	ldhl	sp,	#4
      000AC5 2A                    3285 	ld	a, (hl+)
      000AC6 4F                    3286 	ld	c, a
      000AC7 46                    3287 	ld	b, (hl)
      000AC8 21 09 00              3288 	ld	hl, #0x0009
      000ACB 09                    3289 	add	hl, bc
      000ACC 33                    3290 	inc	sp
      000ACD 33                    3291 	inc	sp
      000ACE E5                    3292 	push	hl
                           000ACF  3293 	C$Sprite_Engine.c$313$1_0$217	= .
                                   3294 	.globl	C$Sprite_Engine.c$313$1_0$217
                                   3295 ;src/engine/Sprite_Engine.c:313: switch(joypad()) {
      000ACF 7B                    3296 	ld	a, e
      000AD0 3D                    3297 	dec	a
      000AD1 28 66                 3298 	jr	Z, 00102$
      000AD3 7B                    3299 	ld	a,e
      000AD4 FE 02                 3300 	cp	a,#0x02
      000AD6 28 0D                 3301 	jr	Z, 00101$
      000AD8 FE 04                 3302 	cp	a,#0x04
      000ADA CAr90r0B              3303 	jp	Z,00103$
      000ADD D6 08                 3304 	sub	a, #0x08
      000ADF CArEAr0B              3305 	jp	Z,00104$
      000AE2 C3r42r0C              3306 	jp	00105$
                           000AE5  3307 	C$Sprite_Engine.c$314$2_0$218	= .
                                   3308 	.globl	C$Sprite_Engine.c$314$2_0$218
                                   3309 ;src/engine/Sprite_Engine.c:314: case J_LEFT:
      000AE5                       3310 00101$:
                                   3311 ;src/engine/Sprite_Engine.c:315: scroll_sprite(meta->tile0->id, -1 * DEFAULT_SCROLL_SPEED, 0);
      000AE5 D1                    3312 	pop	de
      000AE6 D5                    3313 	push	de
      000AE7 1A                    3314 	ld	a, (de)
      000AE8 6F                    3315 	ld	l, a
                                   3316 ;	spillPairReg hl
                                   3317 ;	spillPairReg hl
      000AE9 13                    3318 	inc	de
      000AEA 1A                    3319 	ld	a, (de)
      000AEB 67                    3320 	ld	h, a
                                   3321 ;	spillPairReg hl
                                   3322 ;	spillPairReg hl
                                   3323 ;C:/gbdk/include/gb/gb.h:1536: OAM_item_t * itm = &shadow_OAM[nb];
      000AEC 6E                    3324 	ld	l, (hl)
                                   3325 ;	spillPairReg hl
                                   3326 ;	spillPairReg hl
      000AED 26 00                 3327 	ld	h, #0x00
                                   3328 ;	spillPairReg hl
                                   3329 ;	spillPairReg hl
      000AEF 29                    3330 	add	hl, hl
      000AF0 29                    3331 	add	hl, hl
      000AF1 11r00r00              3332 	ld	de, #_shadow_OAM
      000AF4 19                    3333 	add	hl, de
                                   3334 ;C:/gbdk/include/gb/gb.h:1537: itm->y+=y, itm->x+=x;
      000AF5 7E                    3335 	ld	a, (hl)
      000AF6 22                    3336 	ld	(hl+), a
      000AF7 35                    3337 	dec	(hl)
      000AF8 7E                    3338 	ld	a, (hl)
                                   3339 ;src/engine/Sprite_Engine.c:316: scroll_sprite(meta->tile1->id, -1 * DEFAULT_SCROLL_SPEED, 0);
      000AF9 21 0B 00              3340 	ld	hl, #0x000b
      000AFC 09                    3341 	add	hl, bc
      000AFD 2A                    3342 	ld	a,	(hl+)
      000AFE 66                    3343 	ld	h, (hl)
                                   3344 ;	spillPairReg hl
      000AFF 6F                    3345 	ld	l, a
                                   3346 ;	spillPairReg hl
                                   3347 ;	spillPairReg hl
                                   3348 ;C:/gbdk/include/gb/gb.h:1536: OAM_item_t * itm = &shadow_OAM[nb];
      000B00 6E                    3349 	ld	l, (hl)
                                   3350 ;	spillPairReg hl
                                   3351 ;	spillPairReg hl
      000B01 26 00                 3352 	ld	h, #0x00
                                   3353 ;	spillPairReg hl
                                   3354 ;	spillPairReg hl
      000B03 29                    3355 	add	hl, hl
      000B04 29                    3356 	add	hl, hl
      000B05 11r00r00              3357 	ld	de, #_shadow_OAM
      000B08 19                    3358 	add	hl, de
                                   3359 ;C:/gbdk/include/gb/gb.h:1537: itm->y+=y, itm->x+=x;
      000B09 7E                    3360 	ld	a, (hl)
      000B0A 22                    3361 	ld	(hl+), a
      000B0B 35                    3362 	dec	(hl)
      000B0C 7E                    3363 	ld	a, (hl)
                                   3364 ;src/engine/Sprite_Engine.c:317: scroll_sprite(meta->tile2->id, -1 * DEFAULT_SCROLL_SPEED, 0);
      000B0D 21 0D 00              3365 	ld	hl, #0x000d
      000B10 09                    3366 	add	hl, bc
      000B11 2A                    3367 	ld	a,	(hl+)
      000B12 66                    3368 	ld	h, (hl)
                                   3369 ;	spillPairReg hl
      000B13 6F                    3370 	ld	l, a
                                   3371 ;	spillPairReg hl
                                   3372 ;	spillPairReg hl
                                   3373 ;C:/gbdk/include/gb/gb.h:1536: OAM_item_t * itm = &shadow_OAM[nb];
      000B14 6E                    3374 	ld	l, (hl)
                                   3375 ;	spillPairReg hl
                                   3376 ;	spillPairReg hl
      000B15 26 00                 3377 	ld	h, #0x00
                                   3378 ;	spillPairReg hl
                                   3379 ;	spillPairReg hl
      000B17 29                    3380 	add	hl, hl
      000B18 29                    3381 	add	hl, hl
      000B19 11r00r00              3382 	ld	de, #_shadow_OAM
      000B1C 19                    3383 	add	hl, de
                                   3384 ;C:/gbdk/include/gb/gb.h:1537: itm->y+=y, itm->x+=x;
      000B1D 7E                    3385 	ld	a, (hl)
      000B1E 22                    3386 	ld	(hl+), a
      000B1F 35                    3387 	dec	(hl)
      000B20 7E                    3388 	ld	a, (hl)
                                   3389 ;src/engine/Sprite_Engine.c:318: scroll_sprite(meta->tile3->id, -1 * DEFAULT_SCROLL_SPEED, 0);
      000B21 21 0F 00              3390 	ld	hl, #0x000f
      000B24 09                    3391 	add	hl, bc
      000B25 2A                    3392 	ld	a, (hl+)
      000B26 4F                    3393 	ld	c, a
      000B27 46                    3394 	ld	b, (hl)
      000B28 0A                    3395 	ld	a, (bc)
                                   3396 ;C:/gbdk/include/gb/gb.h:1536: OAM_item_t * itm = &shadow_OAM[nb];
      000B29 6F                    3397 	ld	l, a
                                   3398 ;	spillPairReg hl
                                   3399 ;	spillPairReg hl
      000B2A 26 00                 3400 	ld	h, #0x00
                                   3401 ;	spillPairReg hl
                                   3402 ;	spillPairReg hl
      000B2C 29                    3403 	add	hl, hl
      000B2D 29                    3404 	add	hl, hl
      000B2E 11r00r00              3405 	ld	de, #_shadow_OAM
      000B31 19                    3406 	add	hl, de
                                   3407 ;C:/gbdk/include/gb/gb.h:1537: itm->y+=y, itm->x+=x;
      000B32 7E                    3408 	ld	a, (hl)
      000B33 22                    3409 	ld	(hl+), a
      000B34 35                    3410 	dec	(hl)
      000B35 7E                    3411 	ld	a, (hl)
                           000B36  3412 	C$Sprite_Engine.c$319$2_0$218	= .
                                   3413 	.globl	C$Sprite_Engine.c$319$2_0$218
                                   3414 ;src/engine/Sprite_Engine.c:319: break;
      000B36 C3r42r0C              3415 	jp	00105$
                           000B39  3416 	C$Sprite_Engine.c$320$2_0$218	= .
                                   3417 	.globl	C$Sprite_Engine.c$320$2_0$218
                                   3418 ;src/engine/Sprite_Engine.c:320: case J_RIGHT:
      000B39                       3419 00102$:
                                   3420 ;src/engine/Sprite_Engine.c:321: scroll_sprite(meta->tile0->id, 1 * DEFAULT_SCROLL_SPEED, 0);
      000B39 D1                    3421 	pop	de
      000B3A D5                    3422 	push	de
      000B3B 1A                    3423 	ld	a, (de)
      000B3C 6F                    3424 	ld	l, a
                                   3425 ;	spillPairReg hl
                                   3426 ;	spillPairReg hl
      000B3D 13                    3427 	inc	de
      000B3E 1A                    3428 	ld	a, (de)
      000B3F 67                    3429 	ld	h, a
                                   3430 ;	spillPairReg hl
                                   3431 ;	spillPairReg hl
      000B40 5E                    3432 	ld	e, (hl)
                                   3433 ;C:/gbdk/include/gb/gb.h:1536: OAM_item_t * itm = &shadow_OAM[nb];
      000B41 26 00                 3434 	ld	h, #0x00
                                   3435 ;	spillPairReg hl
                                   3436 ;	spillPairReg hl
      000B43 6B                    3437 	ld	l, e
      000B44 29                    3438 	add	hl, hl
      000B45 29                    3439 	add	hl, hl
      000B46 11r00r00              3440 	ld	de, #_shadow_OAM
      000B49 19                    3441 	add	hl, de
                                   3442 ;C:/gbdk/include/gb/gb.h:1537: itm->y+=y, itm->x+=x;
      000B4A 7E                    3443 	ld	a, (hl)
      000B4B 22                    3444 	ld	(hl+), a
      000B4C 34                    3445 	inc	(hl)
      000B4D 7E                    3446 	ld	a, (hl)
                                   3447 ;src/engine/Sprite_Engine.c:322: scroll_sprite(meta->tile1->id, 1 * DEFAULT_SCROLL_SPEED, 0);
      000B4E 21 0B 00              3448 	ld	hl, #0x000b
      000B51 09                    3449 	add	hl, bc
      000B52 2A                    3450 	ld	a,	(hl+)
      000B53 66                    3451 	ld	h, (hl)
                                   3452 ;	spillPairReg hl
      000B54 6F                    3453 	ld	l, a
                                   3454 ;	spillPairReg hl
                                   3455 ;	spillPairReg hl
      000B55 5E                    3456 	ld	e, (hl)
                                   3457 ;C:/gbdk/include/gb/gb.h:1536: OAM_item_t * itm = &shadow_OAM[nb];
      000B56 26 00                 3458 	ld	h, #0x00
                                   3459 ;	spillPairReg hl
                                   3460 ;	spillPairReg hl
      000B58 6B                    3461 	ld	l, e
      000B59 29                    3462 	add	hl, hl
      000B5A 29                    3463 	add	hl, hl
      000B5B 11r00r00              3464 	ld	de, #_shadow_OAM
      000B5E 19                    3465 	add	hl, de
                                   3466 ;C:/gbdk/include/gb/gb.h:1537: itm->y+=y, itm->x+=x;
      000B5F 7E                    3467 	ld	a, (hl)
      000B60 22                    3468 	ld	(hl+), a
      000B61 34                    3469 	inc	(hl)
      000B62 7E                    3470 	ld	a, (hl)
                                   3471 ;src/engine/Sprite_Engine.c:323: scroll_sprite(meta->tile2->id, 1 * DEFAULT_SCROLL_SPEED, 0);
      000B63 21 0D 00              3472 	ld	hl, #0x000d
      000B66 09                    3473 	add	hl, bc
      000B67 2A                    3474 	ld	a,	(hl+)
      000B68 66                    3475 	ld	h, (hl)
                                   3476 ;	spillPairReg hl
      000B69 6F                    3477 	ld	l, a
                                   3478 ;	spillPairReg hl
                                   3479 ;	spillPairReg hl
      000B6A 5E                    3480 	ld	e, (hl)
                                   3481 ;C:/gbdk/include/gb/gb.h:1536: OAM_item_t * itm = &shadow_OAM[nb];
      000B6B 26 00                 3482 	ld	h, #0x00
                                   3483 ;	spillPairReg hl
                                   3484 ;	spillPairReg hl
      000B6D 6B                    3485 	ld	l, e
      000B6E 29                    3486 	add	hl, hl
      000B6F 29                    3487 	add	hl, hl
      000B70 11r00r00              3488 	ld	de, #_shadow_OAM
      000B73 19                    3489 	add	hl, de
                                   3490 ;C:/gbdk/include/gb/gb.h:1537: itm->y+=y, itm->x+=x;
      000B74 7E                    3491 	ld	a, (hl)
      000B75 22                    3492 	ld	(hl+), a
      000B76 34                    3493 	inc	(hl)
      000B77 7E                    3494 	ld	a, (hl)
                                   3495 ;src/engine/Sprite_Engine.c:324: scroll_sprite(meta->tile3->id, 1 * DEFAULT_SCROLL_SPEED, 0);
      000B78 21 0F 00              3496 	ld	hl, #0x000f
      000B7B 09                    3497 	add	hl, bc
      000B7C 2A                    3498 	ld	a, (hl+)
      000B7D 66                    3499 	ld	h, (hl)
                                   3500 ;	spillPairReg hl
      000B7E 6F                    3501 	ld	l, a
      000B7F 4E                    3502 	ld	c, (hl)
                                   3503 ;C:/gbdk/include/gb/gb.h:1536: OAM_item_t * itm = &shadow_OAM[nb];
      000B80 26 00                 3504 	ld	h, #0x00
                                   3505 ;	spillPairReg hl
                                   3506 ;	spillPairReg hl
      000B82 69                    3507 	ld	l, c
      000B83 29                    3508 	add	hl, hl
      000B84 29                    3509 	add	hl, hl
      000B85 11r00r00              3510 	ld	de, #_shadow_OAM
      000B88 19                    3511 	add	hl, de
                                   3512 ;C:/gbdk/include/gb/gb.h:1537: itm->y+=y, itm->x+=x;
      000B89 7E                    3513 	ld	a, (hl)
      000B8A 22                    3514 	ld	(hl+), a
      000B8B 34                    3515 	inc	(hl)
      000B8C 7E                    3516 	ld	a, (hl)
                           000B8D  3517 	C$Sprite_Engine.c$325$2_0$218	= .
                                   3518 	.globl	C$Sprite_Engine.c$325$2_0$218
                                   3519 ;src/engine/Sprite_Engine.c:325: break;
      000B8D C3r42r0C              3520 	jp	00105$
                           000B90  3521 	C$Sprite_Engine.c$326$2_0$218	= .
                                   3522 	.globl	C$Sprite_Engine.c$326$2_0$218
                                   3523 ;src/engine/Sprite_Engine.c:326: case J_UP:
      000B90                       3524 00103$:
                                   3525 ;src/engine/Sprite_Engine.c:327: scroll_sprite(meta->tile0->id, 0, -1 * DEFAULT_SCROLL_SPEED);
      000B90 D1                    3526 	pop	de
      000B91 D5                    3527 	push	de
      000B92 1A                    3528 	ld	a, (de)
      000B93 6F                    3529 	ld	l, a
                                   3530 ;	spillPairReg hl
                                   3531 ;	spillPairReg hl
      000B94 13                    3532 	inc	de
      000B95 1A                    3533 	ld	a, (de)
      000B96 67                    3534 	ld	h, a
                                   3535 ;	spillPairReg hl
                                   3536 ;	spillPairReg hl
      000B97 5E                    3537 	ld	e, (hl)
                                   3538 ;C:/gbdk/include/gb/gb.h:1536: OAM_item_t * itm = &shadow_OAM[nb];
      000B98 26 00                 3539 	ld	h, #0x00
                                   3540 ;	spillPairReg hl
                                   3541 ;	spillPairReg hl
      000B9A 6B                    3542 	ld	l, e
      000B9B 29                    3543 	add	hl, hl
      000B9C 29                    3544 	add	hl, hl
      000B9D 11r00r00              3545 	ld	de, #_shadow_OAM
      000BA0 19                    3546 	add	hl, de
                                   3547 ;C:/gbdk/include/gb/gb.h:1537: itm->y+=y, itm->x+=x;
      000BA1 7E                    3548 	ld	a, (hl)
      000BA2 3D                    3549 	dec	a
      000BA3 22                    3550 	ld	(hl+), a
      000BA4 7E                    3551 	ld	a, (hl)
      000BA5 77                    3552 	ld	(hl), a
                                   3553 ;src/engine/Sprite_Engine.c:328: scroll_sprite(meta->tile1->id, 0, -1 * DEFAULT_SCROLL_SPEED);
      000BA6 21 0B 00              3554 	ld	hl, #0x000b
      000BA9 09                    3555 	add	hl, bc
      000BAA 2A                    3556 	ld	a,	(hl+)
      000BAB 66                    3557 	ld	h, (hl)
                                   3558 ;	spillPairReg hl
      000BAC 6F                    3559 	ld	l, a
                                   3560 ;	spillPairReg hl
                                   3561 ;	spillPairReg hl
      000BAD 5E                    3562 	ld	e, (hl)
                                   3563 ;C:/gbdk/include/gb/gb.h:1536: OAM_item_t * itm = &shadow_OAM[nb];
      000BAE 26 00                 3564 	ld	h, #0x00
                                   3565 ;	spillPairReg hl
                                   3566 ;	spillPairReg hl
      000BB0 6B                    3567 	ld	l, e
      000BB1 29                    3568 	add	hl, hl
      000BB2 29                    3569 	add	hl, hl
      000BB3 11r00r00              3570 	ld	de, #_shadow_OAM
      000BB6 19                    3571 	add	hl, de
                                   3572 ;C:/gbdk/include/gb/gb.h:1537: itm->y+=y, itm->x+=x;
      000BB7 7E                    3573 	ld	a, (hl)
      000BB8 3D                    3574 	dec	a
      000BB9 22                    3575 	ld	(hl+), a
      000BBA 7E                    3576 	ld	a, (hl)
      000BBB 77                    3577 	ld	(hl), a
                                   3578 ;src/engine/Sprite_Engine.c:329: scroll_sprite(meta->tile2->id, 0, -1 * DEFAULT_SCROLL_SPEED);
      000BBC 21 0D 00              3579 	ld	hl, #0x000d
      000BBF 09                    3580 	add	hl, bc
      000BC0 2A                    3581 	ld	a,	(hl+)
      000BC1 66                    3582 	ld	h, (hl)
                                   3583 ;	spillPairReg hl
      000BC2 6F                    3584 	ld	l, a
                                   3585 ;	spillPairReg hl
                                   3586 ;	spillPairReg hl
      000BC3 5E                    3587 	ld	e, (hl)
                                   3588 ;C:/gbdk/include/gb/gb.h:1536: OAM_item_t * itm = &shadow_OAM[nb];
      000BC4 26 00                 3589 	ld	h, #0x00
                                   3590 ;	spillPairReg hl
                                   3591 ;	spillPairReg hl
      000BC6 6B                    3592 	ld	l, e
      000BC7 29                    3593 	add	hl, hl
      000BC8 29                    3594 	add	hl, hl
      000BC9 11r00r00              3595 	ld	de, #_shadow_OAM
      000BCC 19                    3596 	add	hl, de
                                   3597 ;C:/gbdk/include/gb/gb.h:1537: itm->y+=y, itm->x+=x;
      000BCD 7E                    3598 	ld	a, (hl)
      000BCE 3D                    3599 	dec	a
      000BCF 22                    3600 	ld	(hl+), a
      000BD0 7E                    3601 	ld	a, (hl)
      000BD1 77                    3602 	ld	(hl), a
                                   3603 ;src/engine/Sprite_Engine.c:330: scroll_sprite(meta->tile3->id, 0, -1 * DEFAULT_SCROLL_SPEED);
      000BD2 21 0F 00              3604 	ld	hl, #0x000f
      000BD5 09                    3605 	add	hl, bc
      000BD6 2A                    3606 	ld	a, (hl+)
      000BD7 66                    3607 	ld	h, (hl)
                                   3608 ;	spillPairReg hl
      000BD8 6F                    3609 	ld	l, a
      000BD9 4E                    3610 	ld	c, (hl)
                                   3611 ;C:/gbdk/include/gb/gb.h:1536: OAM_item_t * itm = &shadow_OAM[nb];
      000BDA 26 00                 3612 	ld	h, #0x00
                                   3613 ;	spillPairReg hl
                                   3614 ;	spillPairReg hl
      000BDC 69                    3615 	ld	l, c
      000BDD 29                    3616 	add	hl, hl
      000BDE 29                    3617 	add	hl, hl
      000BDF 11r00r00              3618 	ld	de, #_shadow_OAM
      000BE2 19                    3619 	add	hl, de
                                   3620 ;C:/gbdk/include/gb/gb.h:1537: itm->y+=y, itm->x+=x;
      000BE3 7E                    3621 	ld	a, (hl)
      000BE4 3D                    3622 	dec	a
      000BE5 22                    3623 	ld	(hl+), a
      000BE6 7E                    3624 	ld	a, (hl)
      000BE7 77                    3625 	ld	(hl), a
                           000BE8  3626 	C$Sprite_Engine.c$331$2_0$218	= .
                                   3627 	.globl	C$Sprite_Engine.c$331$2_0$218
                                   3628 ;src/engine/Sprite_Engine.c:331: break;
      000BE8 18 58                 3629 	jr	00105$
                           000BEA  3630 	C$Sprite_Engine.c$332$2_0$218	= .
                                   3631 	.globl	C$Sprite_Engine.c$332$2_0$218
                                   3632 ;src/engine/Sprite_Engine.c:332: case J_DOWN:
      000BEA                       3633 00104$:
                                   3634 ;src/engine/Sprite_Engine.c:333: scroll_sprite(meta->tile0->id, 0, 1 * DEFAULT_SCROLL_SPEED);
      000BEA D1                    3635 	pop	de
      000BEB D5                    3636 	push	de
      000BEC 1A                    3637 	ld	a, (de)
      000BED 6F                    3638 	ld	l, a
                                   3639 ;	spillPairReg hl
                                   3640 ;	spillPairReg hl
      000BEE 13                    3641 	inc	de
      000BEF 1A                    3642 	ld	a, (de)
      000BF0 67                    3643 	ld	h, a
                                   3644 ;	spillPairReg hl
                                   3645 ;	spillPairReg hl
      000BF1 5E                    3646 	ld	e, (hl)
                                   3647 ;C:/gbdk/include/gb/gb.h:1536: OAM_item_t * itm = &shadow_OAM[nb];
      000BF2 26 00                 3648 	ld	h, #0x00
                                   3649 ;	spillPairReg hl
                                   3650 ;	spillPairReg hl
      000BF4 6B                    3651 	ld	l, e
      000BF5 29                    3652 	add	hl, hl
      000BF6 29                    3653 	add	hl, hl
      000BF7 11r00r00              3654 	ld	de, #_shadow_OAM
      000BFA 19                    3655 	add	hl, de
                                   3656 ;C:/gbdk/include/gb/gb.h:1537: itm->y+=y, itm->x+=x;
      000BFB 7E                    3657 	ld	a, (hl)
      000BFC 3C                    3658 	inc	a
      000BFD 22                    3659 	ld	(hl+), a
      000BFE 7E                    3660 	ld	a, (hl)
      000BFF 77                    3661 	ld	(hl), a
                                   3662 ;src/engine/Sprite_Engine.c:334: scroll_sprite(meta->tile1->id, 0, 1 * DEFAULT_SCROLL_SPEED);
      000C00 21 0B 00              3663 	ld	hl, #0x000b
      000C03 09                    3664 	add	hl, bc
      000C04 2A                    3665 	ld	a,	(hl+)
      000C05 66                    3666 	ld	h, (hl)
                                   3667 ;	spillPairReg hl
      000C06 6F                    3668 	ld	l, a
                                   3669 ;	spillPairReg hl
                                   3670 ;	spillPairReg hl
      000C07 5E                    3671 	ld	e, (hl)
                                   3672 ;C:/gbdk/include/gb/gb.h:1536: OAM_item_t * itm = &shadow_OAM[nb];
      000C08 26 00                 3673 	ld	h, #0x00
                                   3674 ;	spillPairReg hl
                                   3675 ;	spillPairReg hl
      000C0A 6B                    3676 	ld	l, e
      000C0B 29                    3677 	add	hl, hl
      000C0C 29                    3678 	add	hl, hl
      000C0D 11r00r00              3679 	ld	de, #_shadow_OAM
      000C10 19                    3680 	add	hl, de
                                   3681 ;C:/gbdk/include/gb/gb.h:1537: itm->y+=y, itm->x+=x;
      000C11 7E                    3682 	ld	a, (hl)
      000C12 3C                    3683 	inc	a
      000C13 22                    3684 	ld	(hl+), a
      000C14 7E                    3685 	ld	a, (hl)
      000C15 77                    3686 	ld	(hl), a
                                   3687 ;src/engine/Sprite_Engine.c:335: scroll_sprite(meta->tile2->id, 0, 1 * DEFAULT_SCROLL_SPEED);
      000C16 21 0D 00              3688 	ld	hl, #0x000d
      000C19 09                    3689 	add	hl, bc
      000C1A 2A                    3690 	ld	a,	(hl+)
      000C1B 66                    3691 	ld	h, (hl)
                                   3692 ;	spillPairReg hl
      000C1C 6F                    3693 	ld	l, a
                                   3694 ;	spillPairReg hl
                                   3695 ;	spillPairReg hl
      000C1D 5E                    3696 	ld	e, (hl)
                                   3697 ;C:/gbdk/include/gb/gb.h:1536: OAM_item_t * itm = &shadow_OAM[nb];
      000C1E 26 00                 3698 	ld	h, #0x00
                                   3699 ;	spillPairReg hl
                                   3700 ;	spillPairReg hl
      000C20 6B                    3701 	ld	l, e
      000C21 29                    3702 	add	hl, hl
      000C22 29                    3703 	add	hl, hl
      000C23 11r00r00              3704 	ld	de, #_shadow_OAM
      000C26 19                    3705 	add	hl, de
                                   3706 ;C:/gbdk/include/gb/gb.h:1537: itm->y+=y, itm->x+=x;
      000C27 7E                    3707 	ld	a, (hl)
      000C28 3C                    3708 	inc	a
      000C29 22                    3709 	ld	(hl+), a
      000C2A 7E                    3710 	ld	a, (hl)
      000C2B 77                    3711 	ld	(hl), a
                                   3712 ;src/engine/Sprite_Engine.c:336: scroll_sprite(meta->tile3->id, 0, 1 * DEFAULT_SCROLL_SPEED);
      000C2C 21 0F 00              3713 	ld	hl, #0x000f
      000C2F 09                    3714 	add	hl, bc
      000C30 2A                    3715 	ld	a, (hl+)
      000C31 66                    3716 	ld	h, (hl)
                                   3717 ;	spillPairReg hl
      000C32 6F                    3718 	ld	l, a
      000C33 4E                    3719 	ld	c, (hl)
                                   3720 ;C:/gbdk/include/gb/gb.h:1536: OAM_item_t * itm = &shadow_OAM[nb];
      000C34 26 00                 3721 	ld	h, #0x00
                                   3722 ;	spillPairReg hl
                                   3723 ;	spillPairReg hl
      000C36 69                    3724 	ld	l, c
      000C37 29                    3725 	add	hl, hl
      000C38 29                    3726 	add	hl, hl
      000C39 11r00r00              3727 	ld	de, #_shadow_OAM
      000C3C 19                    3728 	add	hl, de
                                   3729 ;C:/gbdk/include/gb/gb.h:1537: itm->y+=y, itm->x+=x;
      000C3D 7E                    3730 	ld	a, (hl)
      000C3E 3C                    3731 	inc	a
      000C3F 22                    3732 	ld	(hl+), a
      000C40 7E                    3733 	ld	a, (hl)
      000C41 77                    3734 	ld	(hl), a
                           000C42  3735 	C$Sprite_Engine.c$338$1_0$217	= .
                                   3736 	.globl	C$Sprite_Engine.c$338$1_0$217
                                   3737 ;src/engine/Sprite_Engine.c:338: }
      000C42                       3738 00105$:
                           000C42  3739 	C$Sprite_Engine.c$339$1_0$217	= .
                                   3740 	.globl	C$Sprite_Engine.c$339$1_0$217
                                   3741 ;src/engine/Sprite_Engine.c:339: cpu_wait(50); // change to wait function
      000C42 11 32 00              3742 	ld	de, #0x0032
      000C45 D5                    3743 	push	de
      000C46 CDr00r00              3744 	call	_cpu_wait
      000C49 E1                    3745 	pop	hl
                           000C4A  3746 	C$Sprite_Engine.c$340$1_0$217	= .
                                   3747 	.globl	C$Sprite_Engine.c$340$1_0$217
                                   3748 ;src/engine/Sprite_Engine.c:340: }
      000C4A 33                    3749 	inc	sp
      000C4B 33                    3750 	inc	sp
                           000C4C  3751 	C$Sprite_Engine.c$340$1_0$217	= .
                                   3752 	.globl	C$Sprite_Engine.c$340$1_0$217
                           000C4C  3753 	XG$translate_16x16_meta$0$0	= .
                                   3754 	.globl	XG$translate_16x16_meta$0$0
      000C4C C9                    3755 	ret
                                   3756 	.area _CODE
                                   3757 	.area _INITIALIZER
                                   3758 	.area _CABS (ABS)
